
USB_Test.elf:     file format elf32-littleriscv
USB_Test.elf
architecture: riscv:rv32, flags 0x00000112:
EXEC_P, HAS_SYMS, D_PAGED
start address 0x00000000

Program Header:
    LOAD off    0x00001000 vaddr 0x00000000 paddr 0x00000000 align 2**12
         filesz 0x000028f4 memsz 0x000028f4 flags r-x
    LOAD off    0x00004000 vaddr 0x20000000 paddr 0x000028f4 align 2**12
         filesz 0x00000020 memsz 0x00000d50 flags rw-
    LOAD off    0x00004800 vaddr 0x20004800 paddr 0x20004800 align 2**12
         filesz 0x00000000 memsz 0x00000800 flags rw-

Sections:
Idx Name          Size      VMA       LMA       File off  Algn
  0 .init         00000004  00000000  00000000  00001000  2**1
                  CONTENTS, ALLOC, LOAD, READONLY, CODE
  1 .vector       000000fc  00000004  00000004  00001004  2**1
                  CONTENTS, ALLOC, LOAD, READONLY, CODE
  2 .text         000027f4  00000100  00000100  00001100  2**2
                  CONTENTS, ALLOC, LOAD, READONLY, CODE
  3 .fini         00000000  000028f4  000028f4  00004020  2**0
                  CONTENTS, ALLOC, LOAD, CODE
  4 .dalign       00000000  20000000  20000000  00004020  2**0
                  CONTENTS
  5 .dlalign      00000000  000028f4  000028f4  00004020  2**0
                  CONTENTS
  6 .data         00000020  20000000  000028f4  00004000  2**2
                  CONTENTS, ALLOC, LOAD, DATA
  7 .bss          00000d30  20000020  00002914  00004020  2**2
                  ALLOC
  8 .stack        00000800  20004800  20004800  00004800  2**0
                  ALLOC
  9 .debug_info   0000bac5  00000000  00000000  00004020  2**0
                  CONTENTS, READONLY, DEBUGGING
 10 .debug_abbrev 00001eb7  00000000  00000000  0000fae5  2**0
                  CONTENTS, READONLY, DEBUGGING
 11 .debug_aranges 00000508  00000000  00000000  000119a0  2**3
                  CONTENTS, READONLY, DEBUGGING
 12 .debug_ranges 00000448  00000000  00000000  00011ea8  2**3
                  CONTENTS, READONLY, DEBUGGING
 13 .debug_line   00006dc9  00000000  00000000  000122f0  2**0
                  CONTENTS, READONLY, DEBUGGING
 14 .debug_str    000023c4  00000000  00000000  000190b9  2**0
                  CONTENTS, READONLY, DEBUGGING
 15 .comment      00000033  00000000  00000000  0001b47d  2**0
                  CONTENTS, READONLY
 16 .debug_frame  000010ac  00000000  00000000  0001b4b0  2**2
                  CONTENTS, READONLY, DEBUGGING
 17 .stabstr      00000117  00000000  00000000  0001c55c  2**0
                  CONTENTS, READONLY, DEBUGGING
SYMBOL TABLE:
00000000 l    d  .init	00000000 .init
00000004 l    d  .vector	00000000 .vector
00000100 l    d  .text	00000000 .text
000028f4 l    d  .fini	00000000 .fini
20000000 l    d  .dalign	00000000 .dalign
000028f4 l    d  .dlalign	00000000 .dlalign
20000000 l    d  .data	00000000 .data
20000020 l    d  .bss	00000000 .bss
20004800 l    d  .stack	00000000 .stack
00000000 l    d  .debug_info	00000000 .debug_info
00000000 l    d  .debug_abbrev	00000000 .debug_abbrev
00000000 l    d  .debug_aranges	00000000 .debug_aranges
00000000 l    d  .debug_ranges	00000000 .debug_ranges
00000000 l    d  .debug_line	00000000 .debug_line
00000000 l    d  .debug_str	00000000 .debug_str
00000000 l    d  .comment	00000000 .comment
00000000 l    d  .debug_frame	00000000 .debug_frame
00000000 l    d  .stabstr	00000000 .stabstr
00000000 l    df *ABS*	00000000 ./Startup/startup_ch32v20x_D6.o
00000004 l       .vector	00000000 _vector_base
00000000 l    df *ABS*	00000000 ch32v20x_usbfs_device.c
00000000 l    df *ABS*	00000000 UART.c
00000000 l    df *ABS*	00000000 ch32v20x_it.c
20000040 l     O .bss	00000001 tog.5044
00000000 l    df *ABS*	00000000 main.c
00000000 l    df *ABS*	00000000 system_ch32v20x.c
00001934 l     F .text	00000014 SetSysClock
00001948 l     F .text	00000114 SetSysClockTo96_HSE
00000000 l    df *ABS*	00000000 ch32v20x_dma.c
00000000 l    df *ABS*	00000000 ch32v20x_gpio.c
00000000 l    df *ABS*	00000000 ch32v20x_rcc.c
20000000 l     O .data	00000010 APBAHBPrescTable
20000014 l     O .data	00000004 ADCPrescTable
00000000 l    df *ABS*	00000000 ch32v20x_usart.c
00000000 l    df *ABS*	00000000 debug.c
20000042 l     O .bss	00000001 p_us
20000044 l     O .bss	00000002 p_ms
00000000 l    df *ABS*	00000000 memcpy.c
00000000 l    df *ABS*	00000000 strlen.c
00000000 l    df *ABS*	00000000 usb_desc.c
00000000 l    df *ABS*	00000000 close.c
00001a5c  w      .text	00000000 EXTI2_IRQHandler
000028dc g     O .text	00000016 MySerNumInfo
20000026 g     O .bss	00000002 USBFS_SetupReqValue
00001ce4 g     F .text	00000040 DMA_Cmd
20000810 g       .data	00000000 __global_pointer$
00001a5c  w      .text	00000000 TIM1_CC_IRQHandler
000017f4 g     F .text	00000008 HardFault_Handler
20000550 g     O .bss	00000800 UART2_Rx_Buf
00001a5c  w      .text	00000000 SysTick_Handler
00001a5c  w      .text	00000000 PVD_IRQHandler
00001736 g     F .text	00000008 NMI_Handler
00001a5c  w      .text	00000000 EXTI3_IRQHandler
00000100 g     F .text	0000006c USBFS_RCC_Init
20000020 g       .bss	00000000 _sbss
00000800 g       *ABS*	00000000 __stack_size
2000002a g     O .bss	00000002 USBFS_SetupReqLen
00001c3c g     F .text	000000a8 DMA_Init
000004e0 g     F .text	00000ce4 USBFS_IRQHandler
0000285c g     O .text	00000012 MyDevDescr
00002758 g     F .text	000000b2 memcpy
00001a5c  w      .text	00000000 EXTI0_IRQHandler
00001a5c  w      .text	00000000 I2C2_EV_IRQHandler
20000010 g     O .data	00000004 SystemCoreClock
20000088 g     O .bss	00000040 USBFS_EP1_Buf
00000004 g       .init	00000000 _einit
000014a4 g     F .text	0000012c UART2_DMAInit
000022e0 g     F .text	00000046 RCC_APB2PeriphClockCmd
00001a5c  w      .text	00000000 ADC1_2_IRQHandler
00001d24 g     F .text	00000260 GPIO_Init
00001a5c  w      .text	00000000 Break_Point_Handler
00001a5c  w      .text	00000000 SPI1_IRQHandler
0000251e g     F .text	00000058 USART_Cmd
000015d0 g     F .text	000000a0 UART2_Init
00001a5c  w      .text	00000000 TAMPER_IRQHandler
20000018 g     O .data	00000004 MyLangDescr
00002326 g     F .text	00000046 RCC_APB1PeriphClockCmd
00001a5c  w      .text	00000000 Ecall_M_Mode_Handler
20000038 g     O .bss	00000004 UARTx_Rx_DMACurCount
00002870 g     O .text	00000043 MyCfgDescr
20004800 g       .stack	00000000 _heap_end
00002650 g     F .text	00000084 Delay_Us
0000229a g     F .text	00000046 RCC_AHBPeriphClockCmd
00001a5c  w      .text	00000000 DMA1_Channel4_IRQHandler
000028b4 g     O .text	0000000e MyManuInfo
00001a5c  w      .text	00000000 USART3_IRQHandler
00001a5c  w      .text	00000000 RTC_IRQHandler
2000002c g     O .bss	00000001 USBFS_DevConfig
20000d50 g       .bss	00000000 _ebss
00001a5c  w      .text	00000000 DMA1_Channel7_IRQHandler
00001a5c  w      .text	00000000 CAN1_RX1_IRQHandler
0000260a g     F .text	00000046 Delay_Init
00001f84 g     F .text	0000003e GPIO_SetBits
20000028 g     O .bss	00000002 USBFS_SetupReqIndex
00001a5c  w      .text	00000000 TIM4_IRQHandler
00001fc2 g     F .text	00000054 GPIO_WriteBit
20000025 g     O .bss	00000001 USBFS_SetupReqType
00001a5c  w      .text	00000000 I2C1_EV_IRQHandler
000017fc g     F .text	00000044 GPIO_Toggle_INIT
20000030 g     O .bss	00000008 USBFS_Endp_Busy
00002052 g     F .text	00000248 RCC_GetClocksFreq
00001a5c  w      .text	00000000 DMA1_Channel6_IRQHandler
00001a5c  w      .text	00000000 UART4_IRQHandler
0000236c g     F .text	000001b2 USART_Init
00001a5c  w      .text	00000000 TIM3_IRQHandler
00001a5c  w      .text	00000000 RCC_IRQHandler
20000108 g     O .bss	00000046 Uart
00001a5c  w      .text	00000000 TIM1_TRG_COM_IRQHandler
00001a5c  w      .text	00000000 DMA1_Channel1_IRQHandler
00000000 g       .init	00000000 _start
000002dc g     F .text	00000204 USBFS_Endp_DataUp
00001a5c  w      .text	00000000 EXTI15_10_IRQHandler
20000024 g     O .bss	00000001 USBFS_SetupReqCode
00001a5c  w      .text	00000000 DMA1_Channel8_IRQHandler
2000002f g     O .bss	00000001 USBFS_DevEnumStatus
20000000 g       .dalign	00000000 _data_vma
20000041 g     O .bss	00000001 MCU_Version
00001a5c  w      .text	00000000 EXTI9_5_IRQHandler
2000002d g     O .bss	00000001 USBFS_DevAddr
00001a5c  w      .text	00000000 SPI2_IRQHandler
0000139a g     F .text	0000010a UART2_ParaInit
00001840 g     F .text	00000078 main
00001670 g     F .text	000000c6 UART2_USB_Init
2000002e g     O .bss	00000001 USBFS_DevSleepStatus
00001a5c  w      .text	00000000 DMA1_Channel5_IRQHandler
00002016 g     F .text	0000003c RCC_USBCLKConfig
00001a5c  w      .text	00000000 EXTI4_IRQHandler
000026d4 g     F .text	00000084 Delay_Ms
00000224 g     F .text	000000b8 USBFS_Device_Init
00001a5c  w      .text	00000000 USB_LP_CAN1_RX0_IRQHandler
000028c4 g     O .text	00000016 MyProdInfo
000025de g     F .text	0000002c USART_ClearFlag
0000016c g     F .text	000000b8 USBFS_Device_Endp_Init
000018b8 g     F .text	0000007c SystemInit
000011c4 g     F .text	00000036 RCC_Configuration
00001a5c  w      .text	00000000 USB_HP_CAN1_TX_IRQHandler
00000000 g       .init	00000000 _sinit
00001a5c  w      .text	00000000 DMA1_Channel3_IRQHandler
00001a5c  w      .text	00000000 TIM1_UP_IRQHandler
00001a5c  w      .text	00000000 WWDG_IRQHandler
00001a5c  w      .text	00000000 Ecall_U_Mode_Handler
0000173e g     F .text	000000b6 TIM2_IRQHandler
20005000 g       .stack	00000000 _eusrstack
00001a5c  w      .text	00000000 SW_Handler
00001a5c  w      .text	00000000 TIM1_BRK_IRQHandler
00001a5c  w      .text	00000000 EXTI1_IRQHandler
20000048 g     O .bss	00000040 USBFS_EP0_Buf
20000020 g       .data	00000000 _edata
20000020 g     O .bss	00000004 pUSBFS_Descr
20000d50 g       .bss	00000000 _end
00001a5c  w      .text	00000000 RTCAlarm_IRQHandler
20000150 g     O .bss	00000400 UART2_Tx_Buf
000028f4 g       .dlalign	00000000 _data_lma
00001a5c  w      .text	00000000 USART2_IRQHandler
00001a5c  w      .text	00000000 I2C2_ER_IRQHandler
00001a5c  w      .text	00000000 DMA1_Channel2_IRQHandler
2000003c g     O .bss	00000004 UARTx_Rx_DMALastCount
00001a5e  w      .text	00000000 handle_reset
00001a5c  w      .text	00000000 CAN1_SCE_IRQHandler
00001a5c  w      .text	00000000 FLASH_IRQHandler
00001a5c  w      .text	00000000 USBFSWakeUp_IRQHandler
00001a5c  w      .text	00000000 USART1_IRQHandler
0000280a g     F .text	00000012 strlen
00001a5c  w      .text	00000000 I2C1_ER_IRQHandler
200000c8 g     O .bss	00000040 USBFS_EP3_Buf
00001ae4 g     F .text	00000158 DMA_DeInit
000011fa g     F .text	000001a0 UART2_CfgInit
00002576 g     F .text	00000068 USART_DMACmd
00001a5c  w      .text	00000000 USBWakeUp_IRQHandler



Disassembly of section .init:

00000000 <_sinit>:
   0:	25f0106f          	j	1a5e <handle_reset>

Disassembly of section .vector:

00000004 <_vector_base>:
	...
   c:	1736                	slli	a4,a4,0x2d
   e:	0000                	unimp
  10:	17f4                	addi	a3,sp,1004
  12:	0000                	unimp
  14:	0000                	unimp
  16:	0000                	unimp
  18:	1a5c                	addi	a5,sp,308
	...
  22:	0000                	unimp
  24:	1a5c                	addi	a5,sp,308
  26:	0000                	unimp
  28:	1a5c                	addi	a5,sp,308
	...
  32:	0000                	unimp
  34:	1a5c                	addi	a5,sp,308
  36:	0000                	unimp
  38:	0000                	unimp
  3a:	0000                	unimp
  3c:	1a5c                	addi	a5,sp,308
  3e:	0000                	unimp
  40:	0000                	unimp
  42:	0000                	unimp
  44:	1a5c                	addi	a5,sp,308
  46:	0000                	unimp
  48:	1a5c                	addi	a5,sp,308
  4a:	0000                	unimp
  4c:	1a5c                	addi	a5,sp,308
  4e:	0000                	unimp
  50:	1a5c                	addi	a5,sp,308
  52:	0000                	unimp
  54:	1a5c                	addi	a5,sp,308
  56:	0000                	unimp
  58:	1a5c                	addi	a5,sp,308
  5a:	0000                	unimp
  5c:	1a5c                	addi	a5,sp,308
  5e:	0000                	unimp
  60:	1a5c                	addi	a5,sp,308
  62:	0000                	unimp
  64:	1a5c                	addi	a5,sp,308
  66:	0000                	unimp
  68:	1a5c                	addi	a5,sp,308
  6a:	0000                	unimp
  6c:	1a5c                	addi	a5,sp,308
  6e:	0000                	unimp
  70:	1a5c                	addi	a5,sp,308
  72:	0000                	unimp
  74:	1a5c                	addi	a5,sp,308
  76:	0000                	unimp
  78:	1a5c                	addi	a5,sp,308
  7a:	0000                	unimp
  7c:	1a5c                	addi	a5,sp,308
  7e:	0000                	unimp
  80:	1a5c                	addi	a5,sp,308
  82:	0000                	unimp
  84:	1a5c                	addi	a5,sp,308
  86:	0000                	unimp
  88:	1a5c                	addi	a5,sp,308
  8a:	0000                	unimp
  8c:	1a5c                	addi	a5,sp,308
  8e:	0000                	unimp
  90:	1a5c                	addi	a5,sp,308
  92:	0000                	unimp
  94:	1a5c                	addi	a5,sp,308
  96:	0000                	unimp
  98:	1a5c                	addi	a5,sp,308
  9a:	0000                	unimp
  9c:	1a5c                	addi	a5,sp,308
  9e:	0000                	unimp
  a0:	1a5c                	addi	a5,sp,308
  a2:	0000                	unimp
  a4:	1a5c                	addi	a5,sp,308
  a6:	0000                	unimp
  a8:	1a5c                	addi	a5,sp,308
  aa:	0000                	unimp
  ac:	1a5c                	addi	a5,sp,308
  ae:	0000                	unimp
  b0:	1a5c                	addi	a5,sp,308
  b2:	0000                	unimp
  b4:	173e                	slli	a4,a4,0x2f
  b6:	0000                	unimp
  b8:	1a5c                	addi	a5,sp,308
  ba:	0000                	unimp
  bc:	1a5c                	addi	a5,sp,308
  be:	0000                	unimp
  c0:	1a5c                	addi	a5,sp,308
  c2:	0000                	unimp
  c4:	1a5c                	addi	a5,sp,308
  c6:	0000                	unimp
  c8:	1a5c                	addi	a5,sp,308
  ca:	0000                	unimp
  cc:	1a5c                	addi	a5,sp,308
  ce:	0000                	unimp
  d0:	1a5c                	addi	a5,sp,308
  d2:	0000                	unimp
  d4:	1a5c                	addi	a5,sp,308
  d6:	0000                	unimp
  d8:	1a5c                	addi	a5,sp,308
  da:	0000                	unimp
  dc:	1a5c                	addi	a5,sp,308
  de:	0000                	unimp
  e0:	1a5c                	addi	a5,sp,308
  e2:	0000                	unimp
  e4:	1a5c                	addi	a5,sp,308
  e6:	0000                	unimp
  e8:	1a5c                	addi	a5,sp,308
  ea:	0000                	unimp
  ec:	1a5c                	addi	a5,sp,308
  ee:	0000                	unimp
  f0:	04e0                	addi	s0,sp,588
  f2:	0000                	unimp
  f4:	1a5c                	addi	a5,sp,308
  f6:	0000                	unimp
  f8:	1a5c                	addi	a5,sp,308
  fa:	0000                	unimp
  fc:	1a5c                	addi	a5,sp,308
	...

Disassembly of section .text:

00000100 <USBFS_RCC_Init>:
     100:	1141                	addi	sp,sp,-16
     102:	c606                	sw	ra,12(sp)
     104:	c422                	sw	s0,8(sp)
     106:	0800                	addi	s0,sp,16
     108:	200007b7          	lui	a5,0x20000
     10c:	0107a703          	lw	a4,16(a5) # 20000010 <SystemCoreClock>
     110:	089547b7          	lui	a5,0x8954
     114:	40078793          	addi	a5,a5,1024 # 8954400 <_data_lma+0x8951b0c>
     118:	00f71663          	bne	a4,a5,124 <USBFS_RCC_Init+0x24>
     11c:	4509                	li	a0,2
     11e:	6f9010ef          	jal	ra,2016 <RCC_USBCLKConfig>
     122:	a825                	j	15a <USBFS_RCC_Init+0x5a>
     124:	200007b7          	lui	a5,0x20000
     128:	0107a703          	lw	a4,16(a5) # 20000010 <SystemCoreClock>
     12c:	05b8e7b7          	lui	a5,0x5b8e
     130:	80078793          	addi	a5,a5,-2048 # 5b8d800 <_data_lma+0x5b8af0c>
     134:	00f71663          	bne	a4,a5,140 <USBFS_RCC_Init+0x40>
     138:	4505                	li	a0,1
     13a:	6dd010ef          	jal	ra,2016 <RCC_USBCLKConfig>
     13e:	a831                	j	15a <USBFS_RCC_Init+0x5a>
     140:	200007b7          	lui	a5,0x20000
     144:	0107a703          	lw	a4,16(a5) # 20000010 <SystemCoreClock>
     148:	02dc77b7          	lui	a5,0x2dc7
     14c:	c0078793          	addi	a5,a5,-1024 # 2dc6c00 <_data_lma+0x2dc430c>
     150:	00f71563          	bne	a4,a5,15a <USBFS_RCC_Init+0x5a>
     154:	4501                	li	a0,0
     156:	6c1010ef          	jal	ra,2016 <RCC_USBCLKConfig>
     15a:	4585                	li	a1,1
     15c:	6505                	lui	a0,0x1
     15e:	13c020ef          	jal	ra,229a <RCC_AHBPeriphClockCmd>
     162:	0001                	nop
     164:	40b2                	lw	ra,12(sp)
     166:	4422                	lw	s0,8(sp)
     168:	0141                	addi	sp,sp,16
     16a:	8082                	ret

0000016c <USBFS_Device_Endp_Init>:
     16c:	1101                	addi	sp,sp,-32
     16e:	ce22                	sw	s0,28(sp)
     170:	1000                	addi	s0,sp,32
     172:	500007b7          	lui	a5,0x50000
     176:	04000713          	li	a4,64
     17a:	a7d8                	sb	a4,12(a5)
     17c:	500007b7          	lui	a5,0x50000
     180:	04800713          	li	a4,72
     184:	b7d8                	sb	a4,13(a5)
     186:	500007b7          	lui	a5,0x50000
     18a:	20000737          	lui	a4,0x20000
     18e:	04870713          	addi	a4,a4,72 # 20000048 <USBFS_EP0_Buf>
     192:	cb98                	sw	a4,16(a5)
     194:	500007b7          	lui	a5,0x50000
     198:	87818713          	addi	a4,gp,-1928 # 20000088 <USBFS_EP1_Buf>
     19c:	cbd8                	sw	a4,20(a5)
     19e:	500007b7          	lui	a5,0x50000
     1a2:	20000737          	lui	a4,0x20000
     1a6:	15070713          	addi	a4,a4,336 # 20000150 <UART2_Tx_Buf>
     1aa:	cf98                	sw	a4,24(a5)
     1ac:	500007b7          	lui	a5,0x50000
     1b0:	8b818713          	addi	a4,gp,-1864 # 200000c8 <USBFS_EP3_Buf>
     1b4:	cfd8                	sw	a4,28(a5)
     1b6:	500007b7          	lui	a5,0x50000
     1ba:	020789a3          	sb	zero,51(a5) # 50000033 <_eusrstack+0x2fffb033>
     1be:	500007b7          	lui	a5,0x50000
     1c2:	02078da3          	sb	zero,59(a5) # 5000003b <_eusrstack+0x2fffb03b>
     1c6:	500007b7          	lui	a5,0x50000
     1ca:	02079a23          	sh	zero,52(a5) # 50000034 <_eusrstack+0x2fffb034>
     1ce:	500007b7          	lui	a5,0x50000
     1d2:	02079e23          	sh	zero,60(a5) # 5000003c <_eusrstack+0x2fffb03c>
     1d6:	500007b7          	lui	a5,0x50000
     1da:	4709                	li	a4,2
     1dc:	02e78923          	sb	a4,50(a5) # 50000032 <_eusrstack+0x2fffb032>
     1e0:	500007b7          	lui	a5,0x50000
     1e4:	4709                	li	a4,2
     1e6:	02e78b23          	sb	a4,54(a5) # 50000036 <_eusrstack+0x2fffb036>
     1ea:	500007b7          	lui	a5,0x50000
     1ee:	4709                	li	a4,2
     1f0:	02e78f23          	sb	a4,62(a5) # 5000003e <_eusrstack+0x2fffb03e>
     1f4:	fe0407a3          	sb	zero,-17(s0)
     1f8:	a829                	j	212 <USBFS_Device_Endp_Init+0xa6>
     1fa:	fef44703          	lbu	a4,-17(s0)
     1fe:	82018793          	addi	a5,gp,-2016 # 20000030 <USBFS_Endp_Busy>
     202:	97ba                	add	a5,a5,a4
     204:	00078023          	sb	zero,0(a5)
     208:	fef44783          	lbu	a5,-17(s0)
     20c:	0785                	addi	a5,a5,1
     20e:	fef407a3          	sb	a5,-17(s0)
     212:	fef44703          	lbu	a4,-17(s0)
     216:	479d                	li	a5,7
     218:	fee7f1e3          	bgeu	a5,a4,1fa <USBFS_Device_Endp_Init+0x8e>
     21c:	0001                	nop
     21e:	4472                	lw	s0,28(sp)
     220:	6105                	addi	sp,sp,32
     222:	8082                	ret

00000224 <USBFS_Device_Init>:
     224:	7179                	addi	sp,sp,-48
     226:	d606                	sw	ra,44(sp)
     228:	d422                	sw	s0,40(sp)
     22a:	1800                	addi	s0,sp,48
     22c:	fca42e23          	sw	a0,-36(s0)
     230:	fdc42783          	lw	a5,-36(s0)
     234:	c3a5                	beqz	a5,294 <USBFS_Device_Init+0x70>
     236:	500007b7          	lui	a5,0x50000
     23a:	4719                	li	a4,6
     23c:	a398                	sb	a4,0(a5)
     23e:	4529                	li	a0,10
     240:	410020ef          	jal	ra,2650 <Delay_Us>
     244:	500007b7          	lui	a5,0x50000
     248:	00078023          	sb	zero,0(a5) # 50000000 <_eusrstack+0x2fffb000>
     24c:	500007b7          	lui	a5,0x50000
     250:	471d                	li	a4,7
     252:	a3b8                	sb	a4,2(a5)
     254:	500007b7          	lui	a5,0x50000
     258:	02900713          	li	a4,41
     25c:	a398                	sb	a4,0(a5)
     25e:	3739                	jal	16c <USBFS_Device_Endp_Init>
     260:	500007b7          	lui	a5,0x50000
     264:	f8100713          	li	a4,-127
     268:	b398                	sb	a4,1(a5)
     26a:	03b00793          	li	a5,59
     26e:	fef42623          	sw	a5,-20(s0)
     272:	fec42783          	lw	a5,-20(s0)
     276:	8bfd                	andi	a5,a5,31
     278:	4705                	li	a4,1
     27a:	00f716b3          	sll	a3,a4,a5
     27e:	e000e737          	lui	a4,0xe000e
     282:	fec42783          	lw	a5,-20(s0)
     286:	8395                	srli	a5,a5,0x5
     288:	04078793          	addi	a5,a5,64 # 50000040 <_eusrstack+0x2fffb040>
     28c:	078a                	slli	a5,a5,0x2
     28e:	97ba                	add	a5,a5,a4
     290:	c394                	sw	a3,0(a5)
     292:	a081                	j	2d2 <USBFS_Device_Init+0xae>
     294:	500007b7          	lui	a5,0x50000
     298:	4719                	li	a4,6
     29a:	a398                	sb	a4,0(a5)
     29c:	4529                	li	a0,10
     29e:	3b2020ef          	jal	ra,2650 <Delay_Us>
     2a2:	500007b7          	lui	a5,0x50000
     2a6:	00078023          	sb	zero,0(a5) # 50000000 <_eusrstack+0x2fffb000>
     2aa:	03b00793          	li	a5,59
     2ae:	fef42423          	sw	a5,-24(s0)
     2b2:	fe842783          	lw	a5,-24(s0)
     2b6:	8bfd                	andi	a5,a5,31
     2b8:	4705                	li	a4,1
     2ba:	00f716b3          	sll	a3,a4,a5
     2be:	e000e737          	lui	a4,0xe000e
     2c2:	fe842783          	lw	a5,-24(s0)
     2c6:	8395                	srli	a5,a5,0x5
     2c8:	06078793          	addi	a5,a5,96
     2cc:	078a                	slli	a5,a5,0x2
     2ce:	97ba                	add	a5,a5,a4
     2d0:	c394                	sw	a3,0(a5)
     2d2:	0001                	nop
     2d4:	50b2                	lw	ra,44(sp)
     2d6:	5422                	lw	s0,40(sp)
     2d8:	6145                	addi	sp,sp,48
     2da:	8082                	ret

000002dc <USBFS_Endp_DataUp>:
     2dc:	7179                	addi	sp,sp,-48
     2de:	d606                	sw	ra,44(sp)
     2e0:	d422                	sw	s0,40(sp)
     2e2:	1800                	addi	s0,sp,48
     2e4:	87aa                	mv	a5,a0
     2e6:	fcb42c23          	sw	a1,-40(s0)
     2ea:	8736                	mv	a4,a3
     2ec:	fcf40fa3          	sb	a5,-33(s0)
     2f0:	87b2                	mv	a5,a2
     2f2:	fcf41e23          	sh	a5,-36(s0)
     2f6:	87ba                	mv	a5,a4
     2f8:	fcf40f23          	sb	a5,-34(s0)
     2fc:	fdf44783          	lbu	a5,-33(s0)
     300:	1c078763          	beqz	a5,4ce <USBFS_Endp_DataUp+0x1f2>
     304:	fdf44703          	lbu	a4,-33(s0)
     308:	479d                	li	a5,7
     30a:	1ce7e263          	bltu	a5,a4,4ce <USBFS_Endp_DataUp+0x1f2>
     30e:	fdf44703          	lbu	a4,-33(s0)
     312:	82018793          	addi	a5,gp,-2016 # 20000030 <USBFS_Endp_Busy>
     316:	97ba                	add	a5,a5,a4
     318:	239c                	lbu	a5,0(a5)
     31a:	0ff7f793          	andi	a5,a5,255
     31e:	1a079663          	bnez	a5,4ca <USBFS_Endp_DataUp+0x1ee>
     322:	fdf44703          	lbu	a4,-33(s0)
     326:	4785                	li	a5,1
     328:	00f70763          	beq	a4,a5,336 <USBFS_Endp_DataUp+0x5a>
     32c:	fdf44703          	lbu	a4,-33(s0)
     330:	4791                	li	a5,4
     332:	02f71363          	bne	a4,a5,358 <USBFS_Endp_DataUp+0x7c>
     336:	500007b7          	lui	a5,0x50000
     33a:	07b1                	addi	a5,a5,12
     33c:	239c                	lbu	a5,0(a5)
     33e:	fef407a3          	sb	a5,-17(s0)
     342:	fdf44703          	lbu	a4,-33(s0)
     346:	4785                	li	a5,1
     348:	08f71463          	bne	a4,a5,3d0 <USBFS_Endp_DataUp+0xf4>
     34c:	fef44783          	lbu	a5,-17(s0)
     350:	8391                	srli	a5,a5,0x4
     352:	fef407a3          	sb	a5,-17(s0)
     356:	a8ad                	j	3d0 <USBFS_Endp_DataUp+0xf4>
     358:	fdf44703          	lbu	a4,-33(s0)
     35c:	4789                	li	a5,2
     35e:	00f70763          	beq	a4,a5,36c <USBFS_Endp_DataUp+0x90>
     362:	fdf44703          	lbu	a4,-33(s0)
     366:	478d                	li	a5,3
     368:	02f71363          	bne	a4,a5,38e <USBFS_Endp_DataUp+0xb2>
     36c:	500007b7          	lui	a5,0x50000
     370:	07b5                	addi	a5,a5,13
     372:	239c                	lbu	a5,0(a5)
     374:	fef407a3          	sb	a5,-17(s0)
     378:	fdf44703          	lbu	a4,-33(s0)
     37c:	478d                	li	a5,3
     37e:	04f71963          	bne	a4,a5,3d0 <USBFS_Endp_DataUp+0xf4>
     382:	fef44783          	lbu	a5,-17(s0)
     386:	8391                	srli	a5,a5,0x4
     388:	fef407a3          	sb	a5,-17(s0)
     38c:	a091                	j	3d0 <USBFS_Endp_DataUp+0xf4>
     38e:	fdf44703          	lbu	a4,-33(s0)
     392:	4795                	li	a5,5
     394:	00f70763          	beq	a4,a5,3a2 <USBFS_Endp_DataUp+0xc6>
     398:	fdf44703          	lbu	a4,-33(s0)
     39c:	4799                	li	a5,6
     39e:	02f71363          	bne	a4,a5,3c4 <USBFS_Endp_DataUp+0xe8>
     3a2:	500007b7          	lui	a5,0x50000
     3a6:	07b9                	addi	a5,a5,14
     3a8:	239c                	lbu	a5,0(a5)
     3aa:	fef407a3          	sb	a5,-17(s0)
     3ae:	fdf44703          	lbu	a4,-33(s0)
     3b2:	4799                	li	a5,6
     3b4:	00f71e63          	bne	a4,a5,3d0 <USBFS_Endp_DataUp+0xf4>
     3b8:	fef44783          	lbu	a5,-17(s0)
     3bc:	8391                	srli	a5,a5,0x4
     3be:	fef407a3          	sb	a5,-17(s0)
     3c2:	a039                	j	3d0 <USBFS_Endp_DataUp+0xf4>
     3c4:	500007b7          	lui	a5,0x50000
     3c8:	07bd                	addi	a5,a5,15
     3ca:	239c                	lbu	a5,0(a5)
     3cc:	fef407a3          	sb	a5,-17(s0)
     3d0:	fef44783          	lbu	a5,-17(s0)
     3d4:	8b91                	andi	a5,a5,4
     3d6:	0e078e63          	beqz	a5,4d2 <USBFS_Endp_DataUp+0x1f6>
     3da:	fef44783          	lbu	a5,-17(s0)
     3de:	8ba1                	andi	a5,a5,8
     3e0:	c791                	beqz	a5,3ec <USBFS_Endp_DataUp+0x110>
     3e2:	04000793          	li	a5,64
     3e6:	fef40723          	sb	a5,-18(s0)
     3ea:	a019                	j	3f0 <USBFS_Endp_DataUp+0x114>
     3ec:	fe040723          	sb	zero,-18(s0)
     3f0:	fee44783          	lbu	a5,-18(s0)
     3f4:	eba1                	bnez	a5,444 <USBFS_Endp_DataUp+0x168>
     3f6:	fde44783          	lbu	a5,-34(s0)
     3fa:	e385                	bnez	a5,41a <USBFS_Endp_DataUp+0x13e>
     3fc:	fd842783          	lw	a5,-40(s0)
     400:	01079693          	slli	a3,a5,0x10
     404:	82c1                	srli	a3,a3,0x10
     406:	fdf44703          	lbu	a4,-33(s0)
     40a:	140007b7          	lui	a5,0x14000
     40e:	0791                	addi	a5,a5,4
     410:	97ba                	add	a5,a5,a4
     412:	078a                	slli	a5,a5,0x2
     414:	8736                	mv	a4,a3
     416:	c398                	sw	a4,0(a5)
     418:	a8a9                	j	472 <USBFS_Endp_DataUp+0x196>
     41a:	fdf44703          	lbu	a4,-33(s0)
     41e:	140007b7          	lui	a5,0x14000
     422:	0791                	addi	a5,a5,4
     424:	97ba                	add	a5,a5,a4
     426:	078a                	slli	a5,a5,0x2
     428:	4398                	lw	a4,0(a5)
     42a:	200007b7          	lui	a5,0x20000
     42e:	97ba                	add	a5,a5,a4
     430:	873e                	mv	a4,a5
     432:	fdc45783          	lhu	a5,-36(s0)
     436:	863e                	mv	a2,a5
     438:	fd842583          	lw	a1,-40(s0)
     43c:	853a                	mv	a0,a4
     43e:	31a020ef          	jal	ra,2758 <memcpy>
     442:	a805                	j	472 <USBFS_Endp_DataUp+0x196>
     444:	fee44703          	lbu	a4,-18(s0)
     448:	fdf44683          	lbu	a3,-33(s0)
     44c:	140007b7          	lui	a5,0x14000
     450:	0791                	addi	a5,a5,4
     452:	97b6                	add	a5,a5,a3
     454:	078a                	slli	a5,a5,0x2
     456:	439c                	lw	a5,0(a5)
     458:	973e                	add	a4,a4,a5
     45a:	200007b7          	lui	a5,0x20000
     45e:	97ba                	add	a5,a5,a4
     460:	873e                	mv	a4,a5
     462:	fdc45783          	lhu	a5,-36(s0)
     466:	863e                	mv	a2,a5
     468:	fd842583          	lw	a1,-40(s0)
     46c:	853a                	mv	a0,a4
     46e:	2ea020ef          	jal	ra,2758 <memcpy>
     472:	fdf44703          	lbu	a4,-33(s0)
     476:	82018793          	addi	a5,gp,-2016 # 20000030 <USBFS_Endp_Busy>
     47a:	97ba                	add	a5,a5,a4
     47c:	4705                	li	a4,1
     47e:	a398                	sb	a4,0(a5)
     480:	fdf44703          	lbu	a4,-33(s0)
     484:	140007b7          	lui	a5,0x14000
     488:	07b1                	addi	a5,a5,12
     48a:	97ba                	add	a5,a5,a4
     48c:	078a                	slli	a5,a5,0x2
     48e:	873e                	mv	a4,a5
     490:	fdc45783          	lhu	a5,-36(s0)
     494:	a31e                	sh	a5,0(a4)
     496:	fdf44783          	lbu	a5,-33(s0)
     49a:	00279713          	slli	a4,a5,0x2
     49e:	500007b7          	lui	a5,0x50000
     4a2:	03278793          	addi	a5,a5,50 # 50000032 <_eusrstack+0x2fffb032>
     4a6:	97ba                	add	a5,a5,a4
     4a8:	239c                	lbu	a5,0(a5)
     4aa:	0ff7f793          	andi	a5,a5,255
     4ae:	fdf44703          	lbu	a4,-33(s0)
     4b2:	00271693          	slli	a3,a4,0x2
     4b6:	50000737          	lui	a4,0x50000
     4ba:	03270713          	addi	a4,a4,50 # 50000032 <_eusrstack+0x2fffb032>
     4be:	9736                	add	a4,a4,a3
     4c0:	9bf1                	andi	a5,a5,-4
     4c2:	0ff7f793          	andi	a5,a5,255
     4c6:	a31c                	sb	a5,0(a4)
     4c8:	a029                	j	4d2 <USBFS_Endp_DataUp+0x1f6>
     4ca:	4785                	li	a5,1
     4cc:	a029                	j	4d6 <USBFS_Endp_DataUp+0x1fa>
     4ce:	4785                	li	a5,1
     4d0:	a019                	j	4d6 <USBFS_Endp_DataUp+0x1fa>
     4d2:	0001                	nop
     4d4:	4781                	li	a5,0
     4d6:	853e                	mv	a0,a5
     4d8:	50b2                	lw	ra,44(sp)
     4da:	5422                	lw	s0,40(sp)
     4dc:	6145                	addi	sp,sp,48
     4de:	8082                	ret

000004e0 <USBFS_IRQHandler>:
     4e0:	1101                	addi	sp,sp,-32
     4e2:	ce22                	sw	s0,28(sp)
     4e4:	1000                	addi	s0,sp,32
     4e6:	500007b7          	lui	a5,0x50000
     4ea:	23fc                	lbu	a5,6(a5)
     4ec:	fef405a3          	sb	a5,-21(s0)
     4f0:	500007b7          	lui	a5,0x50000
     4f4:	33fc                	lbu	a5,7(a5)
     4f6:	fef40523          	sb	a5,-22(s0)
     4fa:	feb44783          	lbu	a5,-21(s0)
     4fe:	8b89                	andi	a5,a5,2
     500:	420786e3          	beqz	a5,112c <__stack_size+0x92c>
     504:	fea44783          	lbu	a5,-22(s0)
     508:	0307f793          	andi	a5,a5,48
     50c:	02000713          	li	a4,32
     510:	00e78a63          	beq	a5,a4,524 <USBFS_IRQHandler+0x44>
     514:	03000713          	li	a4,48
     518:	52e78563          	beq	a5,a4,a42 <__stack_size+0x242>
     51c:	1e078163          	beqz	a5,6fe <USBFS_IRQHandler+0x21e>
     520:	4030006f          	j	1122 <__stack_size+0x922>
     524:	fea44783          	lbu	a5,-22(s0)
     528:	03f7f793          	andi	a5,a5,63
     52c:	02100713          	li	a4,33
     530:	10e78b63          	beq	a5,a4,646 <USBFS_IRQHandler+0x166>
     534:	02300713          	li	a4,35
     538:	16e78063          	beq	a5,a4,698 <USBFS_IRQHandler+0x1b8>
     53c:	02000713          	li	a4,32
     540:	1ae79963          	bne	a5,a4,6f2 <USBFS_IRQHandler+0x212>
     544:	81a1d783          	lhu	a5,-2022(gp) # 2000002a <USBFS_SetupReqLen>
     548:	07c2                	slli	a5,a5,0x10
     54a:	83c1                	srli	a5,a5,0x10
     54c:	e791                	bnez	a5,558 <USBFS_IRQHandler+0x78>
     54e:	500007b7          	lui	a5,0x50000
     552:	4711                	li	a4,4
     554:	02e789a3          	sb	a4,51(a5) # 50000033 <_eusrstack+0x2fffb033>
     558:	8151c783          	lbu	a5,-2027(gp) # 20000025 <USBFS_SetupReqType>
     55c:	0ff7f793          	andi	a5,a5,255
     560:	0607f793          	andi	a5,a5,96
     564:	18079a63          	bnez	a5,6f8 <USBFS_IRQHandler+0x218>
     568:	8141c783          	lbu	a5,-2028(gp) # 20000024 <USBFS_SetupReqCode>
     56c:	0ff7f793          	andi	a5,a5,255
     570:	4715                	li	a4,5
     572:	08e78c63          	beq	a5,a4,60a <USBFS_IRQHandler+0x12a>
     576:	4719                	li	a4,6
     578:	0ce79563          	bne	a5,a4,642 <USBFS_IRQHandler+0x162>
     57c:	81a1d783          	lhu	a5,-2022(gp) # 2000002a <USBFS_SetupReqLen>
     580:	01079713          	slli	a4,a5,0x10
     584:	8341                	srli	a4,a4,0x10
     586:	03f00793          	li	a5,63
     58a:	00e7e763          	bltu	a5,a4,598 <USBFS_IRQHandler+0xb8>
     58e:	81a1d783          	lhu	a5,-2022(gp) # 2000002a <USBFS_SetupReqLen>
     592:	07c2                	slli	a5,a5,0x10
     594:	83c1                	srli	a5,a5,0x10
     596:	a019                	j	59c <USBFS_IRQHandler+0xbc>
     598:	04000793          	li	a5,64
     59c:	fef41623          	sh	a5,-20(s0)
     5a0:	8101a783          	lw	a5,-2032(gp) # 20000020 <_edata>
     5a4:	fec45703          	lhu	a4,-20(s0)
     5a8:	863a                	mv	a2,a4
     5aa:	85be                	mv	a1,a5
     5ac:	200007b7          	lui	a5,0x20000
     5b0:	04878513          	addi	a0,a5,72 # 20000048 <USBFS_EP0_Buf>
     5b4:	1a4020ef          	jal	ra,2758 <memcpy>
     5b8:	81a1d783          	lhu	a5,-2022(gp) # 2000002a <USBFS_SetupReqLen>
     5bc:	01079713          	slli	a4,a5,0x10
     5c0:	8341                	srli	a4,a4,0x10
     5c2:	fec45783          	lhu	a5,-20(s0)
     5c6:	40f707b3          	sub	a5,a4,a5
     5ca:	01079713          	slli	a4,a5,0x10
     5ce:	8341                	srli	a4,a4,0x10
     5d0:	80e19d23          	sh	a4,-2022(gp) # 2000002a <USBFS_SetupReqLen>
     5d4:	8101a703          	lw	a4,-2032(gp) # 20000020 <_edata>
     5d8:	fec45783          	lhu	a5,-20(s0)
     5dc:	973e                	add	a4,a4,a5
     5de:	80e1a823          	sw	a4,-2032(gp) # 20000020 <_edata>
     5e2:	500007b7          	lui	a5,0x50000
     5e6:	fec45703          	lhu	a4,-20(s0)
     5ea:	bb9a                	sh	a4,48(a5)
     5ec:	500007b7          	lui	a5,0x50000
     5f0:	0327c783          	lbu	a5,50(a5) # 50000032 <_eusrstack+0x2fffb032>
     5f4:	0ff7f713          	andi	a4,a5,255
     5f8:	500007b7          	lui	a5,0x50000
     5fc:	00474713          	xori	a4,a4,4
     600:	0ff77713          	andi	a4,a4,255
     604:	02e78923          	sb	a4,50(a5) # 50000032 <_eusrstack+0x2fffb032>
     608:	a835                	j	644 <USBFS_IRQHandler+0x164>
     60a:	500007b7          	lui	a5,0x50000
     60e:	33bc                	lbu	a5,3(a5)
     610:	0ff7f793          	andi	a5,a5,255
     614:	07e2                	slli	a5,a5,0x18
     616:	87e1                	srai	a5,a5,0x18
     618:	f807f793          	andi	a5,a5,-128
     61c:	01879713          	slli	a4,a5,0x18
     620:	8761                	srai	a4,a4,0x18
     622:	81d1c783          	lbu	a5,-2019(gp) # 2000002d <USBFS_DevAddr>
     626:	0ff7f793          	andi	a5,a5,255
     62a:	07e2                	slli	a5,a5,0x18
     62c:	87e1                	srai	a5,a5,0x18
     62e:	8fd9                	or	a5,a5,a4
     630:	01879713          	slli	a4,a5,0x18
     634:	8761                	srai	a4,a4,0x18
     636:	500007b7          	lui	a5,0x50000
     63a:	0ff77713          	andi	a4,a4,255
     63e:	b3b8                	sb	a4,3(a5)
     640:	a011                	j	644 <USBFS_IRQHandler+0x164>
     642:	0001                	nop
     644:	a855                	j	6f8 <USBFS_IRQHandler+0x218>
     646:	500007b7          	lui	a5,0x50000
     64a:	0367c783          	lbu	a5,54(a5) # 50000036 <_eusrstack+0x2fffb036>
     64e:	0ff7f713          	andi	a4,a5,255
     652:	500007b7          	lui	a5,0x50000
     656:	00474713          	xori	a4,a4,4
     65a:	0ff77713          	andi	a4,a4,255
     65e:	02e78b23          	sb	a4,54(a5) # 50000036 <_eusrstack+0x2fffb036>
     662:	500007b7          	lui	a5,0x50000
     666:	0367c783          	lbu	a5,54(a5) # 50000036 <_eusrstack+0x2fffb036>
     66a:	0ff7f793          	andi	a5,a5,255
     66e:	07e2                	slli	a5,a5,0x18
     670:	87e1                	srai	a5,a5,0x18
     672:	9bf1                	andi	a5,a5,-4
     674:	07e2                	slli	a5,a5,0x18
     676:	87e1                	srai	a5,a5,0x18
     678:	0027e793          	ori	a5,a5,2
     67c:	01879713          	slli	a4,a5,0x18
     680:	8761                	srai	a4,a4,0x18
     682:	500007b7          	lui	a5,0x50000
     686:	0ff77713          	andi	a4,a4,255
     68a:	02e78b23          	sb	a4,54(a5) # 50000036 <_eusrstack+0x2fffb036>
     68e:	82018793          	addi	a5,gp,-2016 # 20000030 <USBFS_Endp_Busy>
     692:	000780a3          	sb	zero,1(a5)
     696:	a095                	j	6fa <USBFS_IRQHandler+0x21a>
     698:	500007b7          	lui	a5,0x50000
     69c:	03e7c783          	lbu	a5,62(a5) # 5000003e <_eusrstack+0x2fffb03e>
     6a0:	0ff7f713          	andi	a4,a5,255
     6a4:	500007b7          	lui	a5,0x50000
     6a8:	00474713          	xori	a4,a4,4
     6ac:	0ff77713          	andi	a4,a4,255
     6b0:	02e78f23          	sb	a4,62(a5) # 5000003e <_eusrstack+0x2fffb03e>
     6b4:	500007b7          	lui	a5,0x50000
     6b8:	03e7c783          	lbu	a5,62(a5) # 5000003e <_eusrstack+0x2fffb03e>
     6bc:	0ff7f793          	andi	a5,a5,255
     6c0:	07e2                	slli	a5,a5,0x18
     6c2:	87e1                	srai	a5,a5,0x18
     6c4:	9bf1                	andi	a5,a5,-4
     6c6:	07e2                	slli	a5,a5,0x18
     6c8:	87e1                	srai	a5,a5,0x18
     6ca:	0027e793          	ori	a5,a5,2
     6ce:	01879713          	slli	a4,a5,0x18
     6d2:	8761                	srai	a4,a4,0x18
     6d4:	500007b7          	lui	a5,0x50000
     6d8:	0ff77713          	andi	a4,a4,255
     6dc:	02e78f23          	sb	a4,62(a5) # 5000003e <_eusrstack+0x2fffb03e>
     6e0:	82018793          	addi	a5,gp,-2016 # 20000030 <USBFS_Endp_Busy>
     6e4:	000781a3          	sb	zero,3(a5)
     6e8:	8f818793          	addi	a5,gp,-1800 # 20000108 <Uart>
     6ec:	02078a23          	sb	zero,52(a5)
     6f0:	a029                	j	6fa <USBFS_IRQHandler+0x21a>
     6f2:	0001                	nop
     6f4:	22f0006f          	j	1122 <__stack_size+0x922>
     6f8:	0001                	nop
     6fa:	2290006f          	j	1122 <__stack_size+0x922>
     6fe:	fea44783          	lbu	a5,-22(s0)
     702:	03f7f793          	andi	a5,a5,63
     706:	c789                	beqz	a5,710 <USBFS_IRQHandler+0x230>
     708:	4709                	li	a4,2
     70a:	14e78563          	beq	a5,a4,854 <__stack_size+0x54>
     70e:	ae05                	j	a3e <__stack_size+0x23e>
     710:	500007b7          	lui	a5,0x50000
     714:	479c                	lw	a5,8(a5)
     716:	fef41623          	sh	a5,-20(s0)
     71a:	fea44783          	lbu	a5,-22(s0)
     71e:	0407f793          	andi	a5,a5,64
     722:	30078a63          	beqz	a5,a36 <__stack_size+0x236>
     726:	8151c783          	lbu	a5,-2027(gp) # 20000025 <USBFS_SetupReqType>
     72a:	0ff7f793          	andi	a5,a5,255
     72e:	0607f793          	andi	a5,a5,96
     732:	10078163          	beqz	a5,834 <__stack_size+0x34>
     736:	80019d23          	sh	zero,-2022(gp) # 2000002a <USBFS_SetupReqLen>
     73a:	8141c783          	lbu	a5,-2028(gp) # 20000024 <USBFS_SetupReqCode>
     73e:	0ff7f713          	andi	a4,a5,255
     742:	02000793          	li	a5,32
     746:	0ef71763          	bne	a4,a5,834 <__stack_size+0x34>
     74a:	200007b7          	lui	a5,0x20000
     74e:	0487c703          	lbu	a4,72(a5) # 20000048 <USBFS_EP0_Buf>
     752:	8f818793          	addi	a5,gp,-1800 # 20000108 <Uart>
     756:	02e78d23          	sb	a4,58(a5)
     75a:	200007b7          	lui	a5,0x20000
     75e:	04878793          	addi	a5,a5,72 # 20000048 <USBFS_EP0_Buf>
     762:	3398                	lbu	a4,1(a5)
     764:	8f818793          	addi	a5,gp,-1800 # 20000108 <Uart>
     768:	02e78da3          	sb	a4,59(a5)
     76c:	200007b7          	lui	a5,0x20000
     770:	04878793          	addi	a5,a5,72 # 20000048 <USBFS_EP0_Buf>
     774:	23b8                	lbu	a4,2(a5)
     776:	8f818793          	addi	a5,gp,-1800 # 20000108 <Uart>
     77a:	02e78e23          	sb	a4,60(a5)
     77e:	200007b7          	lui	a5,0x20000
     782:	04878793          	addi	a5,a5,72 # 20000048 <USBFS_EP0_Buf>
     786:	33b8                	lbu	a4,3(a5)
     788:	8f818793          	addi	a5,gp,-1800 # 20000108 <Uart>
     78c:	02e78ea3          	sb	a4,61(a5)
     790:	200007b7          	lui	a5,0x20000
     794:	04878793          	addi	a5,a5,72 # 20000048 <USBFS_EP0_Buf>
     798:	23d8                	lbu	a4,4(a5)
     79a:	8f818793          	addi	a5,gp,-1800 # 20000108 <Uart>
     79e:	02e78f23          	sb	a4,62(a5)
     7a2:	200007b7          	lui	a5,0x20000
     7a6:	04878793          	addi	a5,a5,72 # 20000048 <USBFS_EP0_Buf>
     7aa:	33d8                	lbu	a4,5(a5)
     7ac:	8f818793          	addi	a5,gp,-1800 # 20000108 <Uart>
     7b0:	02e78fa3          	sb	a4,63(a5)
     7b4:	200007b7          	lui	a5,0x20000
     7b8:	04878793          	addi	a5,a5,72 # 20000048 <USBFS_EP0_Buf>
     7bc:	23f8                	lbu	a4,6(a5)
     7be:	8f818793          	addi	a5,gp,-1800 # 20000108 <Uart>
     7c2:	04e78023          	sb	a4,64(a5)
     7c6:	8f818793          	addi	a5,gp,-1800 # 20000108 <Uart>
     7ca:	4779                	li	a4,30
     7cc:	04e780a3          	sb	a4,65(a5)
     7d0:	200007b7          	lui	a5,0x20000
     7d4:	0487c783          	lbu	a5,72(a5) # 20000048 <USBFS_EP0_Buf>
     7d8:	fef42223          	sw	a5,-28(s0)
     7dc:	200007b7          	lui	a5,0x20000
     7e0:	04878793          	addi	a5,a5,72 # 20000048 <USBFS_EP0_Buf>
     7e4:	339c                	lbu	a5,1(a5)
     7e6:	07a2                	slli	a5,a5,0x8
     7e8:	fe442703          	lw	a4,-28(s0)
     7ec:	97ba                	add	a5,a5,a4
     7ee:	fef42223          	sw	a5,-28(s0)
     7f2:	200007b7          	lui	a5,0x20000
     7f6:	04878793          	addi	a5,a5,72 # 20000048 <USBFS_EP0_Buf>
     7fa:	23bc                	lbu	a5,2(a5)
     7fc:	07c2                	slli	a5,a5,0x10
     7fe:	fe442703          	lw	a4,-28(s0)
     802:	97ba                	add	a5,a5,a4
     804:	fef42223          	sw	a5,-28(s0)
     808:	200007b7          	lui	a5,0x20000
     80c:	04878793          	addi	a5,a5,72 # 20000048 <USBFS_EP0_Buf>
     810:	33bc                	lbu	a5,3(a5)
     812:	07e2                	slli	a5,a5,0x18
     814:	fe442703          	lw	a4,-28(s0)
     818:	97ba                	add	a5,a5,a4
     81a:	fef42223          	sw	a5,-28(s0)
     81e:	8f818793          	addi	a5,gp,-1800 # 20000108 <Uart>
     822:	33fc                	lbu	a5,7(a5)
     824:	0ff7f713          	andi	a4,a5,255
     828:	8f818793          	addi	a5,gp,-1800 # 20000108 <Uart>
     82c:	04e780a3          	sb	a4,65(a5)
     830:	641000ef          	jal	ra,1670 <UART2_USB_Init>
     834:	81a1d783          	lhu	a5,-2022(gp) # 2000002a <USBFS_SetupReqLen>
     838:	07c2                	slli	a5,a5,0x10
     83a:	83c1                	srli	a5,a5,0x10
     83c:	1e079d63          	bnez	a5,a36 <__stack_size+0x236>
     840:	500007b7          	lui	a5,0x50000
     844:	02079823          	sh	zero,48(a5) # 50000030 <_eusrstack+0x2fffb030>
     848:	500007b7          	lui	a5,0x50000
     84c:	4711                	li	a4,4
     84e:	02e78923          	sb	a4,50(a5) # 50000032 <_eusrstack+0x2fffb032>
     852:	a2d5                	j	a36 <__stack_size+0x236>
     854:	500007b7          	lui	a5,0x50000
     858:	03b7c783          	lbu	a5,59(a5) # 5000003b <_eusrstack+0x2fffb03b>
     85c:	0ff7f713          	andi	a4,a5,255
     860:	500007b7          	lui	a5,0x50000
     864:	00474713          	xori	a4,a4,4
     868:	0ff77713          	andi	a4,a4,255
     86c:	02e78da3          	sb	a4,59(a5) # 5000003b <_eusrstack+0x2fffb03b>
     870:	500007b7          	lui	a5,0x50000
     874:	4790                	lw	a2,8(a5)
     876:	8f818713          	addi	a4,gp,-1800 # 20000108 <Uart>
     87a:	2718                	lbu	a4,8(a4)
     87c:	0ff77713          	andi	a4,a4,255
     880:	8f818793          	addi	a5,gp,-1800 # 20000108 <Uart>
     884:	379c                	lbu	a5,9(a5)
     886:	0ff7f793          	andi	a5,a5,255
     88a:	07a2                	slli	a5,a5,0x8
     88c:	8fd9                	or	a5,a5,a4
     88e:	07c2                	slli	a5,a5,0x10
     890:	83c1                	srli	a5,a5,0x10
     892:	86be                	mv	a3,a5
     894:	01061713          	slli	a4,a2,0x10
     898:	8341                	srli	a4,a4,0x10
     89a:	0686                	slli	a3,a3,0x1
     89c:	8f818793          	addi	a5,gp,-1800 # 20000108 <Uart>
     8a0:	97b6                	add	a5,a5,a3
     8a2:	0ff77593          	andi	a1,a4,255
     8a6:	27f4                	lbu	a3,14(a5)
     8a8:	8a81                	andi	a3,a3,0
     8aa:	8636                	mv	a2,a3
     8ac:	86ae                	mv	a3,a1
     8ae:	8ed1                	or	a3,a3,a2
     8b0:	a7f4                	sb	a3,14(a5)
     8b2:	8321                	srli	a4,a4,0x8
     8b4:	01071613          	slli	a2,a4,0x10
     8b8:	8241                	srli	a2,a2,0x10
     8ba:	37f8                	lbu	a4,15(a5)
     8bc:	8b01                	andi	a4,a4,0
     8be:	86ba                	mv	a3,a4
     8c0:	8732                	mv	a4,a2
     8c2:	8f55                	or	a4,a4,a3
     8c4:	b7f8                	sb	a4,15(a5)
     8c6:	8f818713          	addi	a4,gp,-1800 # 20000108 <Uart>
     8ca:	2718                	lbu	a4,8(a4)
     8cc:	0ff77713          	andi	a4,a4,255
     8d0:	8f818793          	addi	a5,gp,-1800 # 20000108 <Uart>
     8d4:	379c                	lbu	a5,9(a5)
     8d6:	0ff7f793          	andi	a5,a5,255
     8da:	07a2                	slli	a5,a5,0x8
     8dc:	8fd9                	or	a5,a5,a4
     8de:	07c2                	slli	a5,a5,0x10
     8e0:	83c1                	srli	a5,a5,0x10
     8e2:	0785                	addi	a5,a5,1
     8e4:	01079713          	slli	a4,a5,0x10
     8e8:	8341                	srli	a4,a4,0x10
     8ea:	8f818793          	addi	a5,gp,-1800 # 20000108 <Uart>
     8ee:	0ff77593          	andi	a1,a4,255
     8f2:	2794                	lbu	a3,8(a5)
     8f4:	8a81                	andi	a3,a3,0
     8f6:	8636                	mv	a2,a3
     8f8:	86ae                	mv	a3,a1
     8fa:	8ed1                	or	a3,a3,a2
     8fc:	a794                	sb	a3,8(a5)
     8fe:	8321                	srli	a4,a4,0x8
     900:	01071613          	slli	a2,a4,0x10
     904:	8241                	srli	a2,a2,0x10
     906:	3798                	lbu	a4,9(a5)
     908:	8b01                	andi	a4,a4,0
     90a:	86ba                	mv	a3,a4
     90c:	8732                	mv	a4,a2
     90e:	8f55                	or	a4,a4,a3
     910:	b798                	sb	a4,9(a5)
     912:	8f818713          	addi	a4,gp,-1800 # 20000108 <Uart>
     916:	2718                	lbu	a4,8(a4)
     918:	0ff77713          	andi	a4,a4,255
     91c:	8f818793          	addi	a5,gp,-1800 # 20000108 <Uart>
     920:	379c                	lbu	a5,9(a5)
     922:	0ff7f793          	andi	a5,a5,255
     926:	07a2                	slli	a5,a5,0x8
     928:	8fd9                	or	a5,a5,a4
     92a:	07c2                	slli	a5,a5,0x10
     92c:	83c1                	srli	a5,a5,0x10
     92e:	00679713          	slli	a4,a5,0x6
     932:	200007b7          	lui	a5,0x20000
     936:	15078793          	addi	a5,a5,336 # 20000150 <UART2_Tx_Buf>
     93a:	973e                	add	a4,a4,a5
     93c:	500007b7          	lui	a5,0x50000
     940:	cf98                	sw	a4,24(a5)
     942:	8f818713          	addi	a4,gp,-1800 # 20000108 <Uart>
     946:	2718                	lbu	a4,8(a4)
     948:	0ff77713          	andi	a4,a4,255
     94c:	8f818793          	addi	a5,gp,-1800 # 20000108 <Uart>
     950:	379c                	lbu	a5,9(a5)
     952:	0ff7f793          	andi	a5,a5,255
     956:	07a2                	slli	a5,a5,0x8
     958:	8fd9                	or	a5,a5,a4
     95a:	01079713          	slli	a4,a5,0x10
     95e:	8341                	srli	a4,a4,0x10
     960:	47bd                	li	a5,15
     962:	02e7f163          	bgeu	a5,a4,984 <__stack_size+0x184>
     966:	8f818793          	addi	a5,gp,-1800 # 20000108 <Uart>
     96a:	2798                	lbu	a4,8(a5)
     96c:	8b01                	andi	a4,a4,0
     96e:	a798                	sb	a4,8(a5)
     970:	3798                	lbu	a4,9(a5)
     972:	8b01                	andi	a4,a4,0
     974:	b798                	sb	a4,9(a5)
     976:	500007b7          	lui	a5,0x50000
     97a:	20000737          	lui	a4,0x20000
     97e:	15070713          	addi	a4,a4,336 # 20000150 <UART2_Tx_Buf>
     982:	cf98                	sw	a4,24(a5)
     984:	8f818713          	addi	a4,gp,-1800 # 20000108 <Uart>
     988:	2758                	lbu	a4,12(a4)
     98a:	0ff77713          	andi	a4,a4,255
     98e:	8f818793          	addi	a5,gp,-1800 # 20000108 <Uart>
     992:	37dc                	lbu	a5,13(a5)
     994:	0ff7f793          	andi	a5,a5,255
     998:	07a2                	slli	a5,a5,0x8
     99a:	8fd9                	or	a5,a5,a4
     99c:	07c2                	slli	a5,a5,0x10
     99e:	83c1                	srli	a5,a5,0x10
     9a0:	0785                	addi	a5,a5,1
     9a2:	01079713          	slli	a4,a5,0x10
     9a6:	8341                	srli	a4,a4,0x10
     9a8:	8f818793          	addi	a5,gp,-1800 # 20000108 <Uart>
     9ac:	0ff77593          	andi	a1,a4,255
     9b0:	27d4                	lbu	a3,12(a5)
     9b2:	8a81                	andi	a3,a3,0
     9b4:	8636                	mv	a2,a3
     9b6:	86ae                	mv	a3,a1
     9b8:	8ed1                	or	a3,a3,a2
     9ba:	a7d4                	sb	a3,12(a5)
     9bc:	8321                	srli	a4,a4,0x8
     9be:	01071613          	slli	a2,a4,0x10
     9c2:	8241                	srli	a2,a2,0x10
     9c4:	37d8                	lbu	a4,13(a5)
     9c6:	8b01                	andi	a4,a4,0
     9c8:	86ba                	mv	a3,a4
     9ca:	8732                	mv	a4,a2
     9cc:	8f55                	or	a4,a4,a3
     9ce:	b7d8                	sb	a4,13(a5)
     9d0:	8f818713          	addi	a4,gp,-1800 # 20000108 <Uart>
     9d4:	2758                	lbu	a4,12(a4)
     9d6:	0ff77713          	andi	a4,a4,255
     9da:	8f818793          	addi	a5,gp,-1800 # 20000108 <Uart>
     9de:	37dc                	lbu	a5,13(a5)
     9e0:	0ff7f793          	andi	a5,a5,255
     9e4:	07a2                	slli	a5,a5,0x8
     9e6:	8fd9                	or	a5,a5,a4
     9e8:	01079713          	slli	a4,a5,0x10
     9ec:	8341                	srli	a4,a4,0x10
     9ee:	47b5                	li	a5,13
     9f0:	04e7f663          	bgeu	a5,a4,a3c <__stack_size+0x23c>
     9f4:	500007b7          	lui	a5,0x50000
     9f8:	03b7c783          	lbu	a5,59(a5) # 5000003b <_eusrstack+0x2fffb03b>
     9fc:	0ff7f713          	andi	a4,a5,255
     a00:	500007b7          	lui	a5,0x50000
     a04:	9b71                	andi	a4,a4,-4
     a06:	0ff77713          	andi	a4,a4,255
     a0a:	02e78da3          	sb	a4,59(a5) # 5000003b <_eusrstack+0x2fffb03b>
     a0e:	500007b7          	lui	a5,0x50000
     a12:	03b7c783          	lbu	a5,59(a5) # 5000003b <_eusrstack+0x2fffb03b>
     a16:	0ff7f713          	andi	a4,a5,255
     a1a:	500007b7          	lui	a5,0x50000
     a1e:	00276713          	ori	a4,a4,2
     a22:	0ff77713          	andi	a4,a4,255
     a26:	02e78da3          	sb	a4,59(a5) # 5000003b <_eusrstack+0x2fffb03b>
     a2a:	8f818793          	addi	a5,gp,-1800 # 20000108 <Uart>
     a2e:	4705                	li	a4,1
     a30:	02e78ca3          	sb	a4,57(a5)
     a34:	a021                	j	a3c <__stack_size+0x23c>
     a36:	0001                	nop
     a38:	6ea0006f          	j	1122 <__stack_size+0x922>
     a3c:	0001                	nop
     a3e:	6e40006f          	j	1122 <__stack_size+0x922>
     a42:	500007b7          	lui	a5,0x50000
     a46:	4719                	li	a4,6
     a48:	02e78923          	sb	a4,50(a5) # 50000032 <_eusrstack+0x2fffb032>
     a4c:	500007b7          	lui	a5,0x50000
     a50:	4719                	li	a4,6
     a52:	02e789a3          	sb	a4,51(a5) # 50000033 <_eusrstack+0x2fffb033>
     a56:	200007b7          	lui	a5,0x20000
     a5a:	04878793          	addi	a5,a5,72 # 20000048 <USBFS_EP0_Buf>
     a5e:	2398                	lbu	a4,0(a5)
     a60:	80e18aa3          	sb	a4,-2027(gp) # 20000025 <USBFS_SetupReqType>
     a64:	200007b7          	lui	a5,0x20000
     a68:	04878793          	addi	a5,a5,72 # 20000048 <USBFS_EP0_Buf>
     a6c:	3398                	lbu	a4,1(a5)
     a6e:	80e18a23          	sb	a4,-2028(gp) # 20000024 <USBFS_SetupReqCode>
     a72:	200007b7          	lui	a5,0x20000
     a76:	04878793          	addi	a5,a5,72 # 20000048 <USBFS_EP0_Buf>
     a7a:	23f8                	lbu	a4,6(a5)
     a7c:	33fc                	lbu	a5,7(a5)
     a7e:	07a2                	slli	a5,a5,0x8
     a80:	8fd9                	or	a5,a5,a4
     a82:	01079713          	slli	a4,a5,0x10
     a86:	8341                	srli	a4,a4,0x10
     a88:	80e19d23          	sh	a4,-2022(gp) # 2000002a <USBFS_SetupReqLen>
     a8c:	200007b7          	lui	a5,0x20000
     a90:	04878793          	addi	a5,a5,72 # 20000048 <USBFS_EP0_Buf>
     a94:	23b8                	lbu	a4,2(a5)
     a96:	33bc                	lbu	a5,3(a5)
     a98:	07a2                	slli	a5,a5,0x8
     a9a:	8fd9                	or	a5,a5,a4
     a9c:	01079713          	slli	a4,a5,0x10
     aa0:	8341                	srli	a4,a4,0x10
     aa2:	80e19b23          	sh	a4,-2026(gp) # 20000026 <USBFS_SetupReqValue>
     aa6:	200007b7          	lui	a5,0x20000
     aaa:	04878793          	addi	a5,a5,72 # 20000048 <USBFS_EP0_Buf>
     aae:	23d8                	lbu	a4,4(a5)
     ab0:	33dc                	lbu	a5,5(a5)
     ab2:	07a2                	slli	a5,a5,0x8
     ab4:	8fd9                	or	a5,a5,a4
     ab6:	01079713          	slli	a4,a5,0x10
     aba:	8341                	srli	a4,a4,0x10
     abc:	80e19c23          	sh	a4,-2024(gp) # 20000028 <USBFS_SetupReqIndex>
     ac0:	fe041623          	sh	zero,-20(s0)
     ac4:	fe0407a3          	sb	zero,-17(s0)
     ac8:	8151c783          	lbu	a5,-2027(gp) # 20000025 <USBFS_SetupReqType>
     acc:	0ff7f793          	andi	a5,a5,255
     ad0:	0607f793          	andi	a5,a5,96
     ad4:	c7e9                	beqz	a5,b9e <__stack_size+0x39e>
     ad6:	8151c783          	lbu	a5,-2027(gp) # 20000025 <USBFS_SetupReqType>
     ada:	0ff7f793          	andi	a5,a5,255
     ade:	0207f793          	andi	a5,a5,32
     ae2:	cba1                	beqz	a5,b32 <__stack_size+0x332>
     ae4:	8141c783          	lbu	a5,-2028(gp) # 20000024 <USBFS_SetupReqCode>
     ae8:	0ff7f793          	andi	a5,a5,255
     aec:	02100713          	li	a4,33
     af0:	02e78463          	beq	a5,a4,b18 <__stack_size+0x318>
     af4:	02100713          	li	a4,33
     af8:	00f74763          	blt	a4,a5,b06 <__stack_size+0x306>
     afc:	02000713          	li	a4,32
     b00:	04e78463          	beq	a5,a4,b48 <__stack_size+0x348>
     b04:	a015                	j	b28 <__stack_size+0x328>
     b06:	02200713          	li	a4,34
     b0a:	04e78163          	beq	a5,a4,b4c <__stack_size+0x34c>
     b0e:	02300713          	li	a4,35
     b12:	02e78f63          	beq	a5,a4,b50 <__stack_size+0x350>
     b16:	a809                	j	b28 <__stack_size+0x328>
     b18:	93218713          	addi	a4,gp,-1742 # 20000142 <Uart+0x3a>
     b1c:	80e1a823          	sw	a4,-2032(gp) # 20000020 <_edata>
     b20:	479d                	li	a5,7
     b22:	fef41623          	sh	a5,-20(s0)
     b26:	a035                	j	b52 <__stack_size+0x352>
     b28:	57fd                	li	a5,-1
     b2a:	fef407a3          	sb	a5,-17(s0)
     b2e:	0001                	nop
     b30:	a00d                	j	b52 <__stack_size+0x352>
     b32:	8151c783          	lbu	a5,-2027(gp) # 20000025 <USBFS_SetupReqType>
     b36:	0ff7f793          	andi	a5,a5,255
     b3a:	0407f793          	andi	a5,a5,64
     b3e:	eb91                	bnez	a5,b52 <__stack_size+0x352>
     b40:	57fd                	li	a5,-1
     b42:	fef407a3          	sb	a5,-17(s0)
     b46:	a031                	j	b52 <__stack_size+0x352>
     b48:	0001                	nop
     b4a:	a021                	j	b52 <__stack_size+0x352>
     b4c:	0001                	nop
     b4e:	a011                	j	b52 <__stack_size+0x352>
     b50:	0001                	nop
     b52:	81a1d783          	lhu	a5,-2022(gp) # 2000002a <USBFS_SetupReqLen>
     b56:	01079713          	slli	a4,a5,0x10
     b5a:	8341                	srli	a4,a4,0x10
     b5c:	03f00793          	li	a5,63
     b60:	00e7e763          	bltu	a5,a4,b6e <__stack_size+0x36e>
     b64:	81a1d783          	lhu	a5,-2022(gp) # 2000002a <USBFS_SetupReqLen>
     b68:	07c2                	slli	a5,a5,0x10
     b6a:	83c1                	srli	a5,a5,0x10
     b6c:	a019                	j	b72 <__stack_size+0x372>
     b6e:	04000793          	li	a5,64
     b72:	fef41623          	sh	a5,-20(s0)
     b76:	8101a783          	lw	a5,-2032(gp) # 20000020 <_edata>
     b7a:	fec45703          	lhu	a4,-20(s0)
     b7e:	863a                	mv	a2,a4
     b80:	85be                	mv	a1,a5
     b82:	200007b7          	lui	a5,0x20000
     b86:	04878513          	addi	a0,a5,72 # 20000048 <USBFS_EP0_Buf>
     b8a:	3cf010ef          	jal	ra,2758 <memcpy>
     b8e:	8101a703          	lw	a4,-2032(gp) # 20000020 <_edata>
     b92:	fec45783          	lhu	a5,-20(s0)
     b96:	973e                	add	a4,a4,a5
     b98:	80e1a823          	sw	a4,-2032(gp) # 20000020 <_edata>
     b9c:	a9d1                	j	1070 <__stack_size+0x870>
     b9e:	8141c783          	lbu	a5,-2028(gp) # 20000024 <USBFS_SetupReqCode>
     ba2:	0ff7f793          	andi	a5,a5,255
     ba6:	472d                	li	a4,11
     ba8:	4af76763          	bltu	a4,a5,1056 <__stack_size+0x856>
     bac:	00279713          	slli	a4,a5,0x2
     bb0:	678d                	lui	a5,0x3
     bb2:	82c78793          	addi	a5,a5,-2004 # 282c <strlen+0x22>
     bb6:	97ba                	add	a5,a5,a4
     bb8:	439c                	lw	a5,0(a5)
     bba:	8782                	jr	a5
     bbc:	8161d783          	lhu	a5,-2026(gp) # 20000026 <USBFS_SetupReqValue>
     bc0:	07c2                	slli	a5,a5,0x10
     bc2:	83c1                	srli	a5,a5,0x10
     bc4:	83a1                	srli	a5,a5,0x8
     bc6:	07c2                	slli	a5,a5,0x10
     bc8:	83c1                	srli	a5,a5,0x10
     bca:	0ff7f793          	andi	a5,a5,255
     bce:	4709                	li	a4,2
     bd0:	02e78363          	beq	a5,a4,bf6 <__stack_size+0x3f6>
     bd4:	470d                	li	a4,3
     bd6:	04e78963          	beq	a5,a4,c28 <__stack_size+0x428>
     bda:	4705                	li	a4,1
     bdc:	0ce79a63          	bne	a5,a4,cb0 <__stack_size+0x4b0>
     be0:	670d                	lui	a4,0x3
     be2:	85c70713          	addi	a4,a4,-1956 # 285c <MyDevDescr>
     be6:	80e1a823          	sw	a4,-2032(gp) # 20000020 <_edata>
     bea:	678d                	lui	a5,0x3
     bec:	85c7c783          	lbu	a5,-1956(a5) # 285c <MyDevDescr>
     bf0:	fef41623          	sh	a5,-20(s0)
     bf4:	a0d1                	j	cb8 <__stack_size+0x4b8>
     bf6:	670d                	lui	a4,0x3
     bf8:	87070713          	addi	a4,a4,-1936 # 2870 <MyCfgDescr>
     bfc:	80e1a823          	sw	a4,-2032(gp) # 20000020 <_edata>
     c00:	678d                	lui	a5,0x3
     c02:	87078793          	addi	a5,a5,-1936 # 2870 <MyCfgDescr>
     c06:	23bc                	lbu	a5,2(a5)
     c08:	01079713          	slli	a4,a5,0x10
     c0c:	8341                	srli	a4,a4,0x10
     c0e:	678d                	lui	a5,0x3
     c10:	87078793          	addi	a5,a5,-1936 # 2870 <MyCfgDescr>
     c14:	33bc                	lbu	a5,3(a5)
     c16:	07c2                	slli	a5,a5,0x10
     c18:	83c1                	srli	a5,a5,0x10
     c1a:	07a2                	slli	a5,a5,0x8
     c1c:	07c2                	slli	a5,a5,0x10
     c1e:	83c1                	srli	a5,a5,0x10
     c20:	97ba                	add	a5,a5,a4
     c22:	fef41623          	sh	a5,-20(s0)
     c26:	a849                	j	cb8 <__stack_size+0x4b8>
     c28:	8161d783          	lhu	a5,-2026(gp) # 20000026 <USBFS_SetupReqValue>
     c2c:	07c2                	slli	a5,a5,0x10
     c2e:	83c1                	srli	a5,a5,0x10
     c30:	0ff7f793          	andi	a5,a5,255
     c34:	4705                	li	a4,1
     c36:	02e78763          	beq	a5,a4,c64 <__stack_size+0x464>
     c3a:	4705                	li	a4,1
     c3c:	00f74463          	blt	a4,a5,c44 <__stack_size+0x444>
     c40:	cb89                	beqz	a5,c52 <__stack_size+0x452>
     c42:	a095                	j	ca6 <__stack_size+0x4a6>
     c44:	4709                	li	a4,2
     c46:	02e78a63          	beq	a5,a4,c7a <__stack_size+0x47a>
     c4a:	470d                	li	a4,3
     c4c:	04e78263          	beq	a5,a4,c90 <__stack_size+0x490>
     c50:	a899                	j	ca6 <__stack_size+0x4a6>
     c52:	80818713          	addi	a4,gp,-2040 # 20000018 <MyLangDescr>
     c56:	80e1a823          	sw	a4,-2032(gp) # 20000020 <_edata>
     c5a:	8081c783          	lbu	a5,-2040(gp) # 20000018 <MyLangDescr>
     c5e:	fef41623          	sh	a5,-20(s0)
     c62:	a0b1                	j	cae <__stack_size+0x4ae>
     c64:	670d                	lui	a4,0x3
     c66:	8b470713          	addi	a4,a4,-1868 # 28b4 <MyManuInfo>
     c6a:	80e1a823          	sw	a4,-2032(gp) # 20000020 <_edata>
     c6e:	678d                	lui	a5,0x3
     c70:	8b47c783          	lbu	a5,-1868(a5) # 28b4 <MyManuInfo>
     c74:	fef41623          	sh	a5,-20(s0)
     c78:	a81d                	j	cae <__stack_size+0x4ae>
     c7a:	670d                	lui	a4,0x3
     c7c:	8c470713          	addi	a4,a4,-1852 # 28c4 <MyProdInfo>
     c80:	80e1a823          	sw	a4,-2032(gp) # 20000020 <_edata>
     c84:	678d                	lui	a5,0x3
     c86:	8c47c783          	lbu	a5,-1852(a5) # 28c4 <MyProdInfo>
     c8a:	fef41623          	sh	a5,-20(s0)
     c8e:	a005                	j	cae <__stack_size+0x4ae>
     c90:	670d                	lui	a4,0x3
     c92:	8dc70713          	addi	a4,a4,-1828 # 28dc <MySerNumInfo>
     c96:	80e1a823          	sw	a4,-2032(gp) # 20000020 <_edata>
     c9a:	678d                	lui	a5,0x3
     c9c:	8dc7c783          	lbu	a5,-1828(a5) # 28dc <MySerNumInfo>
     ca0:	fef41623          	sh	a5,-20(s0)
     ca4:	a029                	j	cae <__stack_size+0x4ae>
     ca6:	57fd                	li	a5,-1
     ca8:	fef407a3          	sb	a5,-17(s0)
     cac:	0001                	nop
     cae:	a029                	j	cb8 <__stack_size+0x4b8>
     cb0:	57fd                	li	a5,-1
     cb2:	fef407a3          	sb	a5,-17(s0)
     cb6:	0001                	nop
     cb8:	81a1d783          	lhu	a5,-2022(gp) # 2000002a <USBFS_SetupReqLen>
     cbc:	07c2                	slli	a5,a5,0x10
     cbe:	83c1                	srli	a5,a5,0x10
     cc0:	fec45703          	lhu	a4,-20(s0)
     cc4:	00f77663          	bgeu	a4,a5,cd0 <__stack_size+0x4d0>
     cc8:	fec45703          	lhu	a4,-20(s0)
     ccc:	80e19d23          	sh	a4,-2022(gp) # 2000002a <USBFS_SetupReqLen>
     cd0:	81a1d783          	lhu	a5,-2022(gp) # 2000002a <USBFS_SetupReqLen>
     cd4:	01079713          	slli	a4,a5,0x10
     cd8:	8341                	srli	a4,a4,0x10
     cda:	03f00793          	li	a5,63
     cde:	00e7e763          	bltu	a5,a4,cec <__stack_size+0x4ec>
     ce2:	81a1d783          	lhu	a5,-2022(gp) # 2000002a <USBFS_SetupReqLen>
     ce6:	07c2                	slli	a5,a5,0x10
     ce8:	83c1                	srli	a5,a5,0x10
     cea:	a019                	j	cf0 <__stack_size+0x4f0>
     cec:	04000793          	li	a5,64
     cf0:	fef41623          	sh	a5,-20(s0)
     cf4:	8101a783          	lw	a5,-2032(gp) # 20000020 <_edata>
     cf8:	fec45703          	lhu	a4,-20(s0)
     cfc:	863a                	mv	a2,a4
     cfe:	85be                	mv	a1,a5
     d00:	200007b7          	lui	a5,0x20000
     d04:	04878513          	addi	a0,a5,72 # 20000048 <USBFS_EP0_Buf>
     d08:	251010ef          	jal	ra,2758 <memcpy>
     d0c:	8101a703          	lw	a4,-2032(gp) # 20000020 <_edata>
     d10:	fec45783          	lhu	a5,-20(s0)
     d14:	973e                	add	a4,a4,a5
     d16:	80e1a823          	sw	a4,-2032(gp) # 20000020 <_edata>
     d1a:	ae99                	j	1070 <__stack_size+0x870>
     d1c:	8161d783          	lhu	a5,-2026(gp) # 20000026 <USBFS_SetupReqValue>
     d20:	07c2                	slli	a5,a5,0x10
     d22:	83c1                	srli	a5,a5,0x10
     d24:	0ff7f713          	andi	a4,a5,255
     d28:	80e18ea3          	sb	a4,-2019(gp) # 2000002d <USBFS_DevAddr>
     d2c:	a691                	j	1070 <__stack_size+0x870>
     d2e:	81c1c783          	lbu	a5,-2020(gp) # 2000002c <USBFS_DevConfig>
     d32:	0ff7f713          	andi	a4,a5,255
     d36:	200007b7          	lui	a5,0x20000
     d3a:	04e78423          	sb	a4,72(a5) # 20000048 <USBFS_EP0_Buf>
     d3e:	81a1d783          	lhu	a5,-2022(gp) # 2000002a <USBFS_SetupReqLen>
     d42:	01079713          	slli	a4,a5,0x10
     d46:	8341                	srli	a4,a4,0x10
     d48:	4785                	li	a5,1
     d4a:	30e7fc63          	bgeu	a5,a4,1062 <__stack_size+0x862>
     d4e:	4705                	li	a4,1
     d50:	80e19d23          	sh	a4,-2022(gp) # 2000002a <USBFS_SetupReqLen>
     d54:	a639                	j	1062 <__stack_size+0x862>
     d56:	8161d783          	lhu	a5,-2026(gp) # 20000026 <USBFS_SetupReqValue>
     d5a:	07c2                	slli	a5,a5,0x10
     d5c:	83c1                	srli	a5,a5,0x10
     d5e:	0ff7f713          	andi	a4,a5,255
     d62:	80e18e23          	sb	a4,-2020(gp) # 2000002c <USBFS_DevConfig>
     d66:	4705                	li	a4,1
     d68:	80e18fa3          	sb	a4,-2017(gp) # 2000002f <USBFS_DevEnumStatus>
     d6c:	a611                	j	1070 <__stack_size+0x870>
     d6e:	8151c783          	lbu	a5,-2027(gp) # 20000025 <USBFS_SetupReqType>
     d72:	0ff7f793          	andi	a5,a5,255
     d76:	8bfd                	andi	a5,a5,31
     d78:	e785                	bnez	a5,da0 <__stack_size+0x5a0>
     d7a:	8161d783          	lhu	a5,-2026(gp) # 20000026 <USBFS_SetupReqValue>
     d7e:	07c2                	slli	a5,a5,0x10
     d80:	83c1                	srli	a5,a5,0x10
     d82:	0ff7f713          	andi	a4,a5,255
     d86:	4785                	li	a5,1
     d88:	2cf71f63          	bne	a4,a5,1066 <__stack_size+0x866>
     d8c:	81e1c783          	lbu	a5,-2018(gp) # 2000002e <USBFS_DevSleepStatus>
     d90:	0ff7f793          	andi	a5,a5,255
     d94:	9bf9                	andi	a5,a5,-2
     d96:	0ff7f713          	andi	a4,a5,255
     d9a:	80e18f23          	sb	a4,-2018(gp) # 2000002e <USBFS_DevSleepStatus>
     d9e:	a4e1                	j	1066 <__stack_size+0x866>
     da0:	8151c783          	lbu	a5,-2027(gp) # 20000025 <USBFS_SetupReqType>
     da4:	0ff7f793          	andi	a5,a5,255
     da8:	01f7f713          	andi	a4,a5,31
     dac:	4789                	li	a5,2
     dae:	06f71563          	bne	a4,a5,e18 <__stack_size+0x618>
     db2:	8161d783          	lhu	a5,-2026(gp) # 20000026 <USBFS_SetupReqValue>
     db6:	07c2                	slli	a5,a5,0x10
     db8:	83c1                	srli	a5,a5,0x10
     dba:	0ff7f793          	andi	a5,a5,255
     dbe:	eba9                	bnez	a5,e10 <__stack_size+0x610>
     dc0:	8181d783          	lhu	a5,-2024(gp) # 20000028 <USBFS_SetupReqIndex>
     dc4:	07c2                	slli	a5,a5,0x10
     dc6:	83c1                	srli	a5,a5,0x10
     dc8:	0ff7f793          	andi	a5,a5,255
     dcc:	08100713          	li	a4,129
     dd0:	00e78a63          	beq	a5,a4,de4 <__stack_size+0x5e4>
     dd4:	08300713          	li	a4,131
     dd8:	02e78163          	beq	a5,a4,dfa <__stack_size+0x5fa>
     ddc:	4709                	li	a4,2
     dde:	00e78963          	beq	a5,a4,df0 <__stack_size+0x5f0>
     de2:	a015                	j	e06 <__stack_size+0x606>
     de4:	500007b7          	lui	a5,0x50000
     de8:	4709                	li	a4,2
     dea:	02e78b23          	sb	a4,54(a5) # 50000036 <_eusrstack+0x2fffb036>
     dee:	a80d                	j	e20 <__stack_size+0x620>
     df0:	500007b7          	lui	a5,0x50000
     df4:	02078da3          	sb	zero,59(a5) # 5000003b <_eusrstack+0x2fffb03b>
     df8:	a025                	j	e20 <__stack_size+0x620>
     dfa:	500007b7          	lui	a5,0x50000
     dfe:	4709                	li	a4,2
     e00:	02e78f23          	sb	a4,62(a5) # 5000003e <_eusrstack+0x2fffb03e>
     e04:	a831                	j	e20 <__stack_size+0x620>
     e06:	57fd                	li	a5,-1
     e08:	fef407a3          	sb	a5,-17(s0)
     e0c:	0001                	nop
     e0e:	a809                	j	e20 <__stack_size+0x620>
     e10:	57fd                	li	a5,-1
     e12:	fef407a3          	sb	a5,-17(s0)
     e16:	ac81                	j	1066 <__stack_size+0x866>
     e18:	57fd                	li	a5,-1
     e1a:	fef407a3          	sb	a5,-17(s0)
     e1e:	a4a1                	j	1066 <__stack_size+0x866>
     e20:	a499                	j	1066 <__stack_size+0x866>
     e22:	8151c783          	lbu	a5,-2027(gp) # 20000025 <USBFS_SetupReqType>
     e26:	0ff7f793          	andi	a5,a5,255
     e2a:	8bfd                	andi	a5,a5,31
     e2c:	e7a1                	bnez	a5,e74 <__stack_size+0x674>
     e2e:	8161d783          	lhu	a5,-2026(gp) # 20000026 <USBFS_SetupReqValue>
     e32:	07c2                	slli	a5,a5,0x10
     e34:	83c1                	srli	a5,a5,0x10
     e36:	0ff7f713          	andi	a4,a5,255
     e3a:	4785                	li	a5,1
     e3c:	02f71863          	bne	a4,a5,e6c <__stack_size+0x66c>
     e40:	678d                	lui	a5,0x3
     e42:	87078793          	addi	a5,a5,-1936 # 2870 <MyCfgDescr>
     e46:	33fc                	lbu	a5,7(a5)
     e48:	0207f793          	andi	a5,a5,32
     e4c:	cf81                	beqz	a5,e64 <__stack_size+0x664>
     e4e:	81e1c783          	lbu	a5,-2018(gp) # 2000002e <USBFS_DevSleepStatus>
     e52:	0ff7f793          	andi	a5,a5,255
     e56:	0017e793          	ori	a5,a5,1
     e5a:	0ff7f713          	andi	a4,a5,255
     e5e:	80e18f23          	sb	a4,-2018(gp) # 2000002e <USBFS_DevSleepStatus>
     e62:	a439                	j	1070 <__stack_size+0x870>
     e64:	57fd                	li	a5,-1
     e66:	fef407a3          	sb	a5,-17(s0)
     e6a:	a419                	j	1070 <__stack_size+0x870>
     e6c:	57fd                	li	a5,-1
     e6e:	fef407a3          	sb	a5,-17(s0)
     e72:	aafd                	j	1070 <__stack_size+0x870>
     e74:	8151c783          	lbu	a5,-2027(gp) # 20000025 <USBFS_SetupReqType>
     e78:	0ff7f793          	andi	a5,a5,255
     e7c:	01f7f713          	andi	a4,a5,31
     e80:	4789                	li	a5,2
     e82:	0af71163          	bne	a4,a5,f24 <__stack_size+0x724>
     e86:	8161d783          	lhu	a5,-2026(gp) # 20000026 <USBFS_SetupReqValue>
     e8a:	07c2                	slli	a5,a5,0x10
     e8c:	83c1                	srli	a5,a5,0x10
     e8e:	0ff7f793          	andi	a5,a5,255
     e92:	e7c9                	bnez	a5,f1c <__stack_size+0x71c>
     e94:	8181d783          	lhu	a5,-2024(gp) # 20000028 <USBFS_SetupReqIndex>
     e98:	07c2                	slli	a5,a5,0x10
     e9a:	83c1                	srli	a5,a5,0x10
     e9c:	0ff7f793          	andi	a5,a5,255
     ea0:	08100713          	li	a4,129
     ea4:	00e78a63          	beq	a5,a4,eb8 <__stack_size+0x6b8>
     ea8:	08300713          	li	a4,131
     eac:	04e78463          	beq	a5,a4,ef4 <__stack_size+0x6f4>
     eb0:	4709                	li	a4,2
     eb2:	02e78263          	beq	a5,a4,ed6 <__stack_size+0x6d6>
     eb6:	a8b1                	j	f12 <__stack_size+0x712>
     eb8:	500007b7          	lui	a5,0x50000
     ebc:	0367c783          	lbu	a5,54(a5) # 50000036 <_eusrstack+0x2fffb036>
     ec0:	0ff7f713          	andi	a4,a5,255
     ec4:	500007b7          	lui	a5,0x50000
     ec8:	00376713          	ori	a4,a4,3
     ecc:	0ff77713          	andi	a4,a4,255
     ed0:	02e78b23          	sb	a4,54(a5) # 50000036 <_eusrstack+0x2fffb036>
     ed4:	a8a1                	j	f2c <__stack_size+0x72c>
     ed6:	500007b7          	lui	a5,0x50000
     eda:	03b7c783          	lbu	a5,59(a5) # 5000003b <_eusrstack+0x2fffb03b>
     ede:	0ff7f713          	andi	a4,a5,255
     ee2:	500007b7          	lui	a5,0x50000
     ee6:	00376713          	ori	a4,a4,3
     eea:	0ff77713          	andi	a4,a4,255
     eee:	02e78da3          	sb	a4,59(a5) # 5000003b <_eusrstack+0x2fffb03b>
     ef2:	a82d                	j	f2c <__stack_size+0x72c>
     ef4:	500007b7          	lui	a5,0x50000
     ef8:	03e7c783          	lbu	a5,62(a5) # 5000003e <_eusrstack+0x2fffb03e>
     efc:	0ff7f713          	andi	a4,a5,255
     f00:	500007b7          	lui	a5,0x50000
     f04:	00376713          	ori	a4,a4,3
     f08:	0ff77713          	andi	a4,a4,255
     f0c:	02e78f23          	sb	a4,62(a5) # 5000003e <_eusrstack+0x2fffb03e>
     f10:	a831                	j	f2c <__stack_size+0x72c>
     f12:	57fd                	li	a5,-1
     f14:	fef407a3          	sb	a5,-17(s0)
     f18:	0001                	nop
     f1a:	a809                	j	f2c <__stack_size+0x72c>
     f1c:	57fd                	li	a5,-1
     f1e:	fef407a3          	sb	a5,-17(s0)
     f22:	a2b9                	j	1070 <__stack_size+0x870>
     f24:	57fd                	li	a5,-1
     f26:	fef407a3          	sb	a5,-17(s0)
     f2a:	a299                	j	1070 <__stack_size+0x870>
     f2c:	a291                	j	1070 <__stack_size+0x870>
     f2e:	200007b7          	lui	a5,0x20000
     f32:	04078423          	sb	zero,72(a5) # 20000048 <USBFS_EP0_Buf>
     f36:	81a1d783          	lhu	a5,-2022(gp) # 2000002a <USBFS_SetupReqLen>
     f3a:	01079713          	slli	a4,a5,0x10
     f3e:	8341                	srli	a4,a4,0x10
     f40:	4785                	li	a5,1
     f42:	12e7f463          	bgeu	a5,a4,106a <__stack_size+0x86a>
     f46:	4705                	li	a4,1
     f48:	80e19d23          	sh	a4,-2022(gp) # 2000002a <USBFS_SetupReqLen>
     f4c:	aa39                	j	106a <__stack_size+0x86a>
     f4e:	200007b7          	lui	a5,0x20000
     f52:	04078423          	sb	zero,72(a5) # 20000048 <USBFS_EP0_Buf>
     f56:	200007b7          	lui	a5,0x20000
     f5a:	04878793          	addi	a5,a5,72 # 20000048 <USBFS_EP0_Buf>
     f5e:	000780a3          	sb	zero,1(a5)
     f62:	8151c783          	lbu	a5,-2027(gp) # 20000025 <USBFS_SetupReqType>
     f66:	0ff7f793          	andi	a5,a5,255
     f6a:	8bfd                	andi	a5,a5,31
     f6c:	ef89                	bnez	a5,f86 <__stack_size+0x786>
     f6e:	81e1c783          	lbu	a5,-2018(gp) # 2000002e <USBFS_DevSleepStatus>
     f72:	0ff7f793          	andi	a5,a5,255
     f76:	8b85                	andi	a5,a5,1
     f78:	c3f9                	beqz	a5,103e <__stack_size+0x83e>
     f7a:	200007b7          	lui	a5,0x20000
     f7e:	4709                	li	a4,2
     f80:	04e78423          	sb	a4,72(a5) # 20000048 <USBFS_EP0_Buf>
     f84:	a86d                	j	103e <__stack_size+0x83e>
     f86:	8151c783          	lbu	a5,-2027(gp) # 20000025 <USBFS_SetupReqType>
     f8a:	0ff7f793          	andi	a5,a5,255
     f8e:	01f7f713          	andi	a4,a5,31
     f92:	4789                	li	a5,2
     f94:	08f71c63          	bne	a4,a5,102c <__stack_size+0x82c>
     f98:	8181d783          	lhu	a5,-2024(gp) # 20000028 <USBFS_SetupReqIndex>
     f9c:	07c2                	slli	a5,a5,0x10
     f9e:	83c1                	srli	a5,a5,0x10
     fa0:	0ff7f793          	andi	a5,a5,255
     fa4:	08100713          	li	a4,129
     fa8:	00e78a63          	beq	a5,a4,fbc <__stack_size+0x7bc>
     fac:	08300713          	li	a4,131
     fb0:	04e78863          	beq	a5,a4,1000 <__stack_size+0x800>
     fb4:	4709                	li	a4,2
     fb6:	02e78463          	beq	a5,a4,fde <__stack_size+0x7de>
     fba:	a0a5                	j	1022 <__stack_size+0x822>
     fbc:	500007b7          	lui	a5,0x50000
     fc0:	0367c783          	lbu	a5,54(a5) # 50000036 <_eusrstack+0x2fffb036>
     fc4:	0ff7f793          	andi	a5,a5,255
     fc8:	0037f713          	andi	a4,a5,3
     fcc:	478d                	li	a5,3
     fce:	06f71363          	bne	a4,a5,1034 <__stack_size+0x834>
     fd2:	200007b7          	lui	a5,0x20000
     fd6:	4705                	li	a4,1
     fd8:	04e78423          	sb	a4,72(a5) # 20000048 <USBFS_EP0_Buf>
     fdc:	a8a1                	j	1034 <__stack_size+0x834>
     fde:	500007b7          	lui	a5,0x50000
     fe2:	03b7c783          	lbu	a5,59(a5) # 5000003b <_eusrstack+0x2fffb03b>
     fe6:	0ff7f793          	andi	a5,a5,255
     fea:	0037f713          	andi	a4,a5,3
     fee:	478d                	li	a5,3
     ff0:	04f71463          	bne	a4,a5,1038 <__stack_size+0x838>
     ff4:	200007b7          	lui	a5,0x20000
     ff8:	4705                	li	a4,1
     ffa:	04e78423          	sb	a4,72(a5) # 20000048 <USBFS_EP0_Buf>
     ffe:	a82d                	j	1038 <__stack_size+0x838>
    1000:	500007b7          	lui	a5,0x50000
    1004:	03e7c783          	lbu	a5,62(a5) # 5000003e <_eusrstack+0x2fffb03e>
    1008:	0ff7f793          	andi	a5,a5,255
    100c:	0037f713          	andi	a4,a5,3
    1010:	478d                	li	a5,3
    1012:	02f71563          	bne	a4,a5,103c <__stack_size+0x83c>
    1016:	200007b7          	lui	a5,0x20000
    101a:	4705                	li	a4,1
    101c:	04e78423          	sb	a4,72(a5) # 20000048 <USBFS_EP0_Buf>
    1020:	a831                	j	103c <__stack_size+0x83c>
    1022:	57fd                	li	a5,-1
    1024:	fef407a3          	sb	a5,-17(s0)
    1028:	0001                	nop
    102a:	a811                	j	103e <__stack_size+0x83e>
    102c:	57fd                	li	a5,-1
    102e:	fef407a3          	sb	a5,-17(s0)
    1032:	a031                	j	103e <__stack_size+0x83e>
    1034:	0001                	nop
    1036:	a021                	j	103e <__stack_size+0x83e>
    1038:	0001                	nop
    103a:	a011                	j	103e <__stack_size+0x83e>
    103c:	0001                	nop
    103e:	81a1d783          	lhu	a5,-2022(gp) # 2000002a <USBFS_SetupReqLen>
    1042:	01079713          	slli	a4,a5,0x10
    1046:	8341                	srli	a4,a4,0x10
    1048:	4789                	li	a5,2
    104a:	02e7f263          	bgeu	a5,a4,106e <__stack_size+0x86e>
    104e:	4709                	li	a4,2
    1050:	80e19d23          	sh	a4,-2022(gp) # 2000002a <USBFS_SetupReqLen>
    1054:	a829                	j	106e <__stack_size+0x86e>
    1056:	57fd                	li	a5,-1
    1058:	fef407a3          	sb	a5,-17(s0)
    105c:	a811                	j	1070 <__stack_size+0x870>
    105e:	0001                	nop
    1060:	a801                	j	1070 <__stack_size+0x870>
    1062:	0001                	nop
    1064:	a031                	j	1070 <__stack_size+0x870>
    1066:	0001                	nop
    1068:	a021                	j	1070 <__stack_size+0x870>
    106a:	0001                	nop
    106c:	a011                	j	1070 <__stack_size+0x870>
    106e:	0001                	nop
    1070:	fef44703          	lbu	a4,-17(s0)
    1074:	0ff00793          	li	a5,255
    1078:	00f71d63          	bne	a4,a5,1092 <__stack_size+0x892>
    107c:	500007b7          	lui	a5,0x50000
    1080:	471d                	li	a4,7
    1082:	02e78923          	sb	a4,50(a5) # 50000032 <_eusrstack+0x2fffb032>
    1086:	500007b7          	lui	a5,0x50000
    108a:	471d                	li	a4,7
    108c:	02e789a3          	sb	a4,51(a5) # 50000033 <_eusrstack+0x2fffb033>
    1090:	a841                	j	1120 <__stack_size+0x920>
    1092:	8151c783          	lbu	a5,-2027(gp) # 20000025 <USBFS_SetupReqType>
    1096:	0ff7f793          	andi	a5,a5,255
    109a:	07e2                	slli	a5,a5,0x18
    109c:	87e1                	srai	a5,a5,0x18
    109e:	0407dd63          	bgez	a5,10f8 <__stack_size+0x8f8>
    10a2:	81a1d783          	lhu	a5,-2022(gp) # 2000002a <USBFS_SetupReqLen>
    10a6:	01079713          	slli	a4,a5,0x10
    10aa:	8341                	srli	a4,a4,0x10
    10ac:	04000793          	li	a5,64
    10b0:	00e7e763          	bltu	a5,a4,10be <__stack_size+0x8be>
    10b4:	81a1d783          	lhu	a5,-2022(gp) # 2000002a <USBFS_SetupReqLen>
    10b8:	07c2                	slli	a5,a5,0x10
    10ba:	83c1                	srli	a5,a5,0x10
    10bc:	a019                	j	10c2 <__stack_size+0x8c2>
    10be:	04000793          	li	a5,64
    10c2:	fef41623          	sh	a5,-20(s0)
    10c6:	81a1d783          	lhu	a5,-2022(gp) # 2000002a <USBFS_SetupReqLen>
    10ca:	01079713          	slli	a4,a5,0x10
    10ce:	8341                	srli	a4,a4,0x10
    10d0:	fec45783          	lhu	a5,-20(s0)
    10d4:	40f707b3          	sub	a5,a4,a5
    10d8:	01079713          	slli	a4,a5,0x10
    10dc:	8341                	srli	a4,a4,0x10
    10de:	80e19d23          	sh	a4,-2022(gp) # 2000002a <USBFS_SetupReqLen>
    10e2:	500007b7          	lui	a5,0x50000
    10e6:	fec45703          	lhu	a4,-20(s0)
    10ea:	bb9a                	sh	a4,48(a5)
    10ec:	500007b7          	lui	a5,0x50000
    10f0:	4711                	li	a4,4
    10f2:	02e78923          	sb	a4,50(a5) # 50000032 <_eusrstack+0x2fffb032>
    10f6:	a02d                	j	1120 <__stack_size+0x920>
    10f8:	81a1d783          	lhu	a5,-2022(gp) # 2000002a <USBFS_SetupReqLen>
    10fc:	07c2                	slli	a5,a5,0x10
    10fe:	83c1                	srli	a5,a5,0x10
    1100:	eb99                	bnez	a5,1116 <__stack_size+0x916>
    1102:	500007b7          	lui	a5,0x50000
    1106:	02079823          	sh	zero,48(a5) # 50000030 <_eusrstack+0x2fffb030>
    110a:	500007b7          	lui	a5,0x50000
    110e:	4711                	li	a4,4
    1110:	02e78923          	sb	a4,50(a5) # 50000032 <_eusrstack+0x2fffb032>
    1114:	a031                	j	1120 <__stack_size+0x920>
    1116:	500007b7          	lui	a5,0x50000
    111a:	4711                	li	a4,4
    111c:	02e789a3          	sb	a4,51(a5) # 50000033 <_eusrstack+0x2fffb033>
    1120:	0001                	nop
    1122:	500007b7          	lui	a5,0x50000
    1126:	4709                	li	a4,2
    1128:	a3f8                	sb	a4,6(a5)
    112a:	a841                	j	11ba <__stack_size+0x9ba>
    112c:	feb44783          	lbu	a5,-21(s0)
    1130:	8b85                	andi	a5,a5,1
    1132:	c795                	beqz	a5,115e <__stack_size+0x95e>
    1134:	80018e23          	sb	zero,-2020(gp) # 2000002c <USBFS_DevConfig>
    1138:	80018ea3          	sb	zero,-2019(gp) # 2000002d <USBFS_DevAddr>
    113c:	80018f23          	sb	zero,-2018(gp) # 2000002e <USBFS_DevSleepStatus>
    1140:	80018fa3          	sb	zero,-2017(gp) # 2000002f <USBFS_DevEnumStatus>
    1144:	500007b7          	lui	a5,0x50000
    1148:	000781a3          	sb	zero,3(a5) # 50000003 <_eusrstack+0x2fffb003>
    114c:	820ff0ef          	jal	ra,16c <USBFS_Device_Endp_Init>
    1150:	4505                	li	a0,1
    1152:	24a1                	jal	139a <UART2_ParaInit>
    1154:	500007b7          	lui	a5,0x50000
    1158:	4705                	li	a4,1
    115a:	a3f8                	sb	a4,6(a5)
    115c:	a8b9                	j	11ba <__stack_size+0x9ba>
    115e:	feb44783          	lbu	a5,-21(s0)
    1162:	8b91                	andi	a5,a5,4
    1164:	c7b1                	beqz	a5,11b0 <__stack_size+0x9b0>
    1166:	500007b7          	lui	a5,0x50000
    116a:	4711                	li	a4,4
    116c:	a3f8                	sb	a4,6(a5)
    116e:	4529                	li	a0,10
    1170:	4e0010ef          	jal	ra,2650 <Delay_Us>
    1174:	500007b7          	lui	a5,0x50000
    1178:	33dc                	lbu	a5,5(a5)
    117a:	0ff7f793          	andi	a5,a5,255
    117e:	8b91                	andi	a5,a5,4
    1180:	cf91                	beqz	a5,119c <__stack_size+0x99c>
    1182:	81e1c783          	lbu	a5,-2018(gp) # 2000002e <USBFS_DevSleepStatus>
    1186:	0ff7f793          	andi	a5,a5,255
    118a:	0027e793          	ori	a5,a5,2
    118e:	0ff7f713          	andi	a4,a5,255
    1192:	80e18f23          	sb	a4,-2018(gp) # 2000002e <USBFS_DevSleepStatus>
    1196:	81e1c783          	lbu	a5,-2018(gp) # 2000002e <USBFS_DevSleepStatus>
    119a:	a005                	j	11ba <__stack_size+0x9ba>
    119c:	81e1c783          	lbu	a5,-2018(gp) # 2000002e <USBFS_DevSleepStatus>
    11a0:	0ff7f793          	andi	a5,a5,255
    11a4:	9bf5                	andi	a5,a5,-3
    11a6:	0ff7f713          	andi	a4,a5,255
    11aa:	80e18f23          	sb	a4,-2018(gp) # 2000002e <USBFS_DevSleepStatus>
    11ae:	a031                	j	11ba <__stack_size+0x9ba>
    11b0:	500007b7          	lui	a5,0x50000
    11b4:	feb44703          	lbu	a4,-21(s0)
    11b8:	a3f8                	sb	a4,6(a5)
    11ba:	0001                	nop
    11bc:	4472                	lw	s0,28(sp)
    11be:	6105                	addi	sp,sp,32
    11c0:	30200073          	mret

000011c4 <RCC_Configuration>:
    11c4:	1141                	addi	sp,sp,-16
    11c6:	c606                	sw	ra,12(sp)
    11c8:	c422                	sw	s0,8(sp)
    11ca:	0800                	addi	s0,sp,16
    11cc:	4585                	li	a1,1
    11ce:	4511                	li	a0,4
    11d0:	110010ef          	jal	ra,22e0 <RCC_APB2PeriphClockCmd>
    11d4:	4585                	li	a1,1
    11d6:	00020537          	lui	a0,0x20
    11da:	14c010ef          	jal	ra,2326 <RCC_APB1PeriphClockCmd>
    11de:	4585                	li	a1,1
    11e0:	4505                	li	a0,1
    11e2:	144010ef          	jal	ra,2326 <RCC_APB1PeriphClockCmd>
    11e6:	4585                	li	a1,1
    11e8:	4505                	li	a0,1
    11ea:	0b0010ef          	jal	ra,229a <RCC_AHBPeriphClockCmd>
    11ee:	4781                	li	a5,0
    11f0:	853e                	mv	a0,a5
    11f2:	40b2                	lw	ra,12(sp)
    11f4:	4422                	lw	s0,8(sp)
    11f6:	0141                	addi	sp,sp,16
    11f8:	8082                	ret

000011fa <UART2_CfgInit>:
    11fa:	7139                	addi	sp,sp,-64
    11fc:	de06                	sw	ra,60(sp)
    11fe:	dc22                	sw	s0,56(sp)
    1200:	0080                	addi	s0,sp,64
    1202:	fca42623          	sw	a0,-52(s0)
    1206:	87ae                	mv	a5,a1
    1208:	8732                	mv	a4,a2
    120a:	fcf405a3          	sb	a5,-53(s0)
    120e:	87ba                	mv	a5,a4
    1210:	fcf40523          	sb	a5,-54(s0)
    1214:	fc042e23          	sw	zero,-36(s0)
    1218:	fe042023          	sw	zero,-32(s0)
    121c:	fe042223          	sw	zero,-28(s0)
    1220:	fe042423          	sw	zero,-24(s0)
    1224:	fc042823          	sw	zero,-48(s0)
    1228:	fc042a23          	sw	zero,-44(s0)
    122c:	fc042c23          	sw	zero,-40(s0)
    1230:	4591                	li	a1,4
    1232:	400117b7          	lui	a5,0x40011
    1236:	80078513          	addi	a0,a5,-2048 # 40010800 <_eusrstack+0x2000b800>
    123a:	54b000ef          	jal	ra,1f84 <GPIO_SetBits>
    123e:	4791                	li	a5,4
    1240:	fcf41823          	sh	a5,-48(s0)
    1244:	478d                	li	a5,3
    1246:	fcf42a23          	sw	a5,-44(s0)
    124a:	47c1                	li	a5,16
    124c:	fcf42c23          	sw	a5,-40(s0)
    1250:	fd040793          	addi	a5,s0,-48
    1254:	85be                	mv	a1,a5
    1256:	400117b7          	lui	a5,0x40011
    125a:	80078513          	addi	a0,a5,-2048 # 40010800 <_eusrstack+0x2000b800>
    125e:	2c7000ef          	jal	ra,1d24 <GPIO_Init>
    1262:	400047b7          	lui	a5,0x40004
    1266:	40078793          	addi	a5,a5,1024 # 40004400 <_eusrstack+0x1ffff400>
    126a:	27de                	lhu	a5,12(a5)
    126c:	01079713          	slli	a4,a5,0x10
    1270:	8341                	srli	a4,a4,0x10
    1272:	400047b7          	lui	a5,0x40004
    1276:	40078793          	addi	a5,a5,1024 # 40004400 <_eusrstack+0x1ffff400>
    127a:	9b4d                	andi	a4,a4,-13
    127c:	0742                	slli	a4,a4,0x10
    127e:	8341                	srli	a4,a4,0x10
    1280:	a7da                	sh	a4,12(a5)
    1282:	47a1                	li	a5,8
    1284:	fcf41823          	sh	a5,-48(s0)
    1288:	04800793          	li	a5,72
    128c:	fcf42c23          	sw	a5,-40(s0)
    1290:	fd040793          	addi	a5,s0,-48
    1294:	85be                	mv	a1,a5
    1296:	400117b7          	lui	a5,0x40011
    129a:	80078513          	addi	a0,a5,-2048 # 40010800 <_eusrstack+0x2000b800>
    129e:	287000ef          	jal	ra,1d24 <GPIO_Init>
    12a2:	4791                	li	a5,4
    12a4:	fcf41823          	sh	a5,-48(s0)
    12a8:	478d                	li	a5,3
    12aa:	fcf42a23          	sw	a5,-44(s0)
    12ae:	47e1                	li	a5,24
    12b0:	fcf42c23          	sw	a5,-40(s0)
    12b4:	fd040793          	addi	a5,s0,-48
    12b8:	85be                	mv	a1,a5
    12ba:	400117b7          	lui	a5,0x40011
    12be:	80078513          	addi	a0,a5,-2048 # 40010800 <_eusrstack+0x2000b800>
    12c2:	263000ef          	jal	ra,1d24 <GPIO_Init>
    12c6:	77e1                	lui	a5,0xffff8
    12c8:	fcf41823          	sh	a5,-48(s0)
    12cc:	478d                	li	a5,3
    12ce:	fcf42a23          	sw	a5,-44(s0)
    12d2:	47c1                	li	a5,16
    12d4:	fcf42c23          	sw	a5,-40(s0)
    12d8:	fd040793          	addi	a5,s0,-48
    12dc:	85be                	mv	a1,a5
    12de:	400117b7          	lui	a5,0x40011
    12e2:	80078513          	addi	a0,a5,-2048 # 40010800 <_eusrstack+0x2000b800>
    12e6:	23f000ef          	jal	ra,1d24 <GPIO_Init>
    12ea:	fcc42783          	lw	a5,-52(s0)
    12ee:	fcf42e23          	sw	a5,-36(s0)
    12f2:	fe041023          	sh	zero,-32(s0)
    12f6:	fcb44703          	lbu	a4,-53(s0)
    12fa:	4785                	li	a5,1
    12fc:	00f71663          	bne	a4,a5,1308 <UART2_CfgInit+0x10e>
    1300:	678d                	lui	a5,0x3
    1302:	fef41123          	sh	a5,-30(s0)
    1306:	a821                	j	131e <UART2_CfgInit+0x124>
    1308:	fcb44703          	lbu	a4,-53(s0)
    130c:	4789                	li	a5,2
    130e:	00f71663          	bne	a4,a5,131a <UART2_CfgInit+0x120>
    1312:	6789                	lui	a5,0x2
    1314:	fef41123          	sh	a5,-30(s0)
    1318:	a019                	j	131e <UART2_CfgInit+0x124>
    131a:	fe041123          	sh	zero,-30(s0)
    131e:	fca44703          	lbu	a4,-54(s0)
    1322:	4785                	li	a5,1
    1324:	00f71a63          	bne	a4,a5,1338 <UART2_CfgInit+0x13e>
    1328:	60000793          	li	a5,1536
    132c:	fef41223          	sh	a5,-28(s0)
    1330:	6785                	lui	a5,0x1
    1332:	fef41023          	sh	a5,-32(s0)
    1336:	a005                	j	1356 <UART2_CfgInit+0x15c>
    1338:	fca44703          	lbu	a4,-54(s0)
    133c:	4789                	li	a5,2
    133e:	00f71a63          	bne	a4,a5,1352 <UART2_CfgInit+0x158>
    1342:	40000793          	li	a5,1024
    1346:	fef41223          	sh	a5,-28(s0)
    134a:	6785                	lui	a5,0x1
    134c:	fef41023          	sh	a5,-32(s0)
    1350:	a019                	j	1356 <UART2_CfgInit+0x15c>
    1352:	fe041223          	sh	zero,-28(s0)
    1356:	fe041423          	sh	zero,-24(s0)
    135a:	47b1                	li	a5,12
    135c:	fef41323          	sh	a5,-26(s0)
    1360:	fdc40793          	addi	a5,s0,-36
    1364:	85be                	mv	a1,a5
    1366:	400047b7          	lui	a5,0x40004
    136a:	40078513          	addi	a0,a5,1024 # 40004400 <_eusrstack+0x1ffff400>
    136e:	7ff000ef          	jal	ra,236c <USART_Init>
    1372:	04000593          	li	a1,64
    1376:	400047b7          	lui	a5,0x40004
    137a:	40078513          	addi	a0,a5,1024 # 40004400 <_eusrstack+0x1ffff400>
    137e:	260010ef          	jal	ra,25de <USART_ClearFlag>
    1382:	4585                	li	a1,1
    1384:	400047b7          	lui	a5,0x40004
    1388:	40078513          	addi	a0,a5,1024 # 40004400 <_eusrstack+0x1ffff400>
    138c:	192010ef          	jal	ra,251e <USART_Cmd>
    1390:	0001                	nop
    1392:	50f2                	lw	ra,60(sp)
    1394:	5462                	lw	s0,56(sp)
    1396:	6121                	addi	sp,sp,64
    1398:	8082                	ret

0000139a <UART2_ParaInit>:
    139a:	7179                	addi	sp,sp,-48
    139c:	d622                	sw	s0,44(sp)
    139e:	1800                	addi	s0,sp,48
    13a0:	87aa                	mv	a5,a0
    13a2:	fcf40fa3          	sb	a5,-33(s0)
    13a6:	8e019c23          	sh	zero,-1800(gp) # 20000108 <Uart>
    13aa:	8f818793          	addi	a5,gp,-1800 # 20000108 <Uart>
    13ae:	00079123          	sh	zero,2(a5)
    13b2:	8f818793          	addi	a5,gp,-1800 # 20000108 <Uart>
    13b6:	00079223          	sh	zero,4(a5)
    13ba:	8f818793          	addi	a5,gp,-1800 # 20000108 <Uart>
    13be:	00078323          	sb	zero,6(a5)
    13c2:	8f818793          	addi	a5,gp,-1800 # 20000108 <Uart>
    13c6:	4779                	li	a4,30
    13c8:	b3f8                	sb	a4,7(a5)
    13ca:	8f818793          	addi	a5,gp,-1800 # 20000108 <Uart>
    13ce:	00079423          	sh	zero,8(a5)
    13d2:	8f818793          	addi	a5,gp,-1800 # 20000108 <Uart>
    13d6:	00079523          	sh	zero,10(a5)
    13da:	8f818793          	addi	a5,gp,-1800 # 20000108 <Uart>
    13de:	00079623          	sh	zero,12(a5)
    13e2:	fe0407a3          	sb	zero,-17(s0)
    13e6:	a831                	j	1402 <UART2_ParaInit+0x68>
    13e8:	fef44783          	lbu	a5,-17(s0)
    13ec:	8f818713          	addi	a4,gp,-1800 # 20000108 <Uart>
    13f0:	0786                	slli	a5,a5,0x1
    13f2:	97ba                	add	a5,a5,a4
    13f4:	00079723          	sh	zero,14(a5)
    13f8:	fef44783          	lbu	a5,-17(s0)
    13fc:	0785                	addi	a5,a5,1
    13fe:	fef407a3          	sb	a5,-17(s0)
    1402:	fef44703          	lbu	a4,-17(s0)
    1406:	47bd                	li	a5,15
    1408:	fee7f0e3          	bgeu	a5,a4,13e8 <UART2_ParaInit+0x4e>
    140c:	8f818793          	addi	a5,gp,-1800 # 20000108 <Uart>
    1410:	02078723          	sb	zero,46(a5)
    1414:	8f818793          	addi	a5,gp,-1800 # 20000108 <Uart>
    1418:	02079823          	sh	zero,48(a5)
    141c:	8f818793          	addi	a5,gp,-1800 # 20000108 <Uart>
    1420:	02079923          	sh	zero,50(a5)
    1424:	8f818793          	addi	a5,gp,-1800 # 20000108 <Uart>
    1428:	02078a23          	sb	zero,52(a5)
    142c:	8f818793          	addi	a5,gp,-1800 # 20000108 <Uart>
    1430:	02079b23          	sh	zero,54(a5)
    1434:	8f818793          	addi	a5,gp,-1800 # 20000108 <Uart>
    1438:	02078c23          	sb	zero,56(a5)
    143c:	8f818793          	addi	a5,gp,-1800 # 20000108 <Uart>
    1440:	02078ca3          	sb	zero,57(a5)
    1444:	8201a423          	sw	zero,-2008(gp) # 20000038 <UARTx_Rx_DMACurCount>
    1448:	8201a623          	sw	zero,-2004(gp) # 2000003c <UARTx_Rx_DMALastCount>
    144c:	fdf44783          	lbu	a5,-33(s0)
    1450:	c7b1                	beqz	a5,149c <UART2_ParaInit+0x102>
    1452:	8f818793          	addi	a5,gp,-1800 # 20000108 <Uart>
    1456:	02078d23          	sb	zero,58(a5)
    145a:	8f818793          	addi	a5,gp,-1800 # 20000108 <Uart>
    145e:	fc200713          	li	a4,-62
    1462:	02e78da3          	sb	a4,59(a5)
    1466:	8f818793          	addi	a5,gp,-1800 # 20000108 <Uart>
    146a:	4705                	li	a4,1
    146c:	02e78e23          	sb	a4,60(a5)
    1470:	8f818793          	addi	a5,gp,-1800 # 20000108 <Uart>
    1474:	02078ea3          	sb	zero,61(a5)
    1478:	8f818793          	addi	a5,gp,-1800 # 20000108 <Uart>
    147c:	02078f23          	sb	zero,62(a5)
    1480:	8f818793          	addi	a5,gp,-1800 # 20000108 <Uart>
    1484:	02078fa3          	sb	zero,63(a5)
    1488:	8f818793          	addi	a5,gp,-1800 # 20000108 <Uart>
    148c:	4721                	li	a4,8
    148e:	04e78023          	sb	a4,64(a5)
    1492:	8f818793          	addi	a5,gp,-1800 # 20000108 <Uart>
    1496:	4779                	li	a4,30
    1498:	04e780a3          	sb	a4,65(a5)
    149c:	0001                	nop
    149e:	5432                	lw	s0,44(sp)
    14a0:	6145                	addi	sp,sp,48
    14a2:	8082                	ret

000014a4 <UART2_DMAInit>:
    14a4:	715d                	addi	sp,sp,-80
    14a6:	c686                	sw	ra,76(sp)
    14a8:	c4a2                	sw	s0,72(sp)
    14aa:	0880                	addi	s0,sp,80
    14ac:	87aa                	mv	a5,a0
    14ae:	fab42c23          	sw	a1,-72(s0)
    14b2:	fac42a23          	sw	a2,-76(s0)
    14b6:	faf40fa3          	sb	a5,-65(s0)
    14ba:	fc042223          	sw	zero,-60(s0)
    14be:	fc042423          	sw	zero,-56(s0)
    14c2:	fc042623          	sw	zero,-52(s0)
    14c6:	fc042823          	sw	zero,-48(s0)
    14ca:	fc042a23          	sw	zero,-44(s0)
    14ce:	fc042c23          	sw	zero,-40(s0)
    14d2:	fc042e23          	sw	zero,-36(s0)
    14d6:	fe042023          	sw	zero,-32(s0)
    14da:	fe042223          	sw	zero,-28(s0)
    14de:	fe042423          	sw	zero,-24(s0)
    14e2:	fe042623          	sw	zero,-20(s0)
    14e6:	fbf44783          	lbu	a5,-65(s0)
    14ea:	eba5                	bnez	a5,155a <UART2_DMAInit+0xb6>
    14ec:	400207b7          	lui	a5,0x40020
    14f0:	08078513          	addi	a0,a5,128 # 40020080 <_eusrstack+0x2001b080>
    14f4:	2bc5                	jal	1ae4 <DMA_DeInit>
    14f6:	400047b7          	lui	a5,0x40004
    14fa:	40478793          	addi	a5,a5,1028 # 40004404 <_eusrstack+0x1ffff404>
    14fe:	fcf42223          	sw	a5,-60(s0)
    1502:	fb842783          	lw	a5,-72(s0)
    1506:	fcf42423          	sw	a5,-56(s0)
    150a:	47c1                	li	a5,16
    150c:	fcf42623          	sw	a5,-52(s0)
    1510:	fb442783          	lw	a5,-76(s0)
    1514:	fcf42823          	sw	a5,-48(s0)
    1518:	fc042a23          	sw	zero,-44(s0)
    151c:	08000793          	li	a5,128
    1520:	fcf42c23          	sw	a5,-40(s0)
    1524:	fc042e23          	sw	zero,-36(s0)
    1528:	fe042023          	sw	zero,-32(s0)
    152c:	fe042223          	sw	zero,-28(s0)
    1530:	6785                	lui	a5,0x1
    1532:	fef42423          	sw	a5,-24(s0)
    1536:	fe042623          	sw	zero,-20(s0)
    153a:	fc440793          	addi	a5,s0,-60
    153e:	85be                	mv	a1,a5
    1540:	400207b7          	lui	a5,0x40020
    1544:	08078513          	addi	a0,a5,128 # 40020080 <_eusrstack+0x2001b080>
    1548:	2dd5                	jal	1c3c <DMA_Init>
    154a:	4585                	li	a1,1
    154c:	400207b7          	lui	a5,0x40020
    1550:	08078513          	addi	a0,a5,128 # 40020080 <_eusrstack+0x2001b080>
    1554:	790000ef          	jal	ra,1ce4 <DMA_Cmd>
    1558:	a0bd                	j	15c6 <UART2_DMAInit+0x122>
    155a:	400207b7          	lui	a5,0x40020
    155e:	06c78513          	addi	a0,a5,108 # 4002006c <_eusrstack+0x2001b06c>
    1562:	2349                	jal	1ae4 <DMA_DeInit>
    1564:	400047b7          	lui	a5,0x40004
    1568:	40478793          	addi	a5,a5,1028 # 40004404 <_eusrstack+0x1ffff404>
    156c:	fcf42223          	sw	a5,-60(s0)
    1570:	fb842783          	lw	a5,-72(s0)
    1574:	fcf42423          	sw	a5,-56(s0)
    1578:	fc042623          	sw	zero,-52(s0)
    157c:	fb442783          	lw	a5,-76(s0)
    1580:	fcf42823          	sw	a5,-48(s0)
    1584:	fc042a23          	sw	zero,-44(s0)
    1588:	08000793          	li	a5,128
    158c:	fcf42c23          	sw	a5,-40(s0)
    1590:	fc042e23          	sw	zero,-36(s0)
    1594:	fe042023          	sw	zero,-32(s0)
    1598:	02000793          	li	a5,32
    159c:	fef42223          	sw	a5,-28(s0)
    15a0:	6785                	lui	a5,0x1
    15a2:	fef42423          	sw	a5,-24(s0)
    15a6:	fe042623          	sw	zero,-20(s0)
    15aa:	fc440793          	addi	a5,s0,-60
    15ae:	85be                	mv	a1,a5
    15b0:	400207b7          	lui	a5,0x40020
    15b4:	06c78513          	addi	a0,a5,108 # 4002006c <_eusrstack+0x2001b06c>
    15b8:	2551                	jal	1c3c <DMA_Init>
    15ba:	4585                	li	a1,1
    15bc:	400207b7          	lui	a5,0x40020
    15c0:	06c78513          	addi	a0,a5,108 # 4002006c <_eusrstack+0x2001b06c>
    15c4:	2705                	jal	1ce4 <DMA_Cmd>
    15c6:	0001                	nop
    15c8:	40b6                	lw	ra,76(sp)
    15ca:	4426                	lw	s0,72(sp)
    15cc:	6161                	addi	sp,sp,80
    15ce:	8082                	ret

000015d0 <UART2_Init>:
    15d0:	1101                	addi	sp,sp,-32
    15d2:	ce06                	sw	ra,28(sp)
    15d4:	cc22                	sw	s0,24(sp)
    15d6:	1000                	addi	s0,sp,32
    15d8:	87aa                	mv	a5,a0
    15da:	feb42423          	sw	a1,-24(s0)
    15de:	8736                	mv	a4,a3
    15e0:	fef407a3          	sb	a5,-17(s0)
    15e4:	87b2                	mv	a5,a2
    15e6:	fef40723          	sb	a5,-18(s0)
    15ea:	87ba                	mv	a5,a4
    15ec:	fef406a3          	sb	a5,-19(s0)
    15f0:	4601                	li	a2,0
    15f2:	04000593          	li	a1,64
    15f6:	400047b7          	lui	a5,0x40004
    15fa:	40078513          	addi	a0,a5,1024 # 40004400 <_eusrstack+0x1ffff400>
    15fe:	779000ef          	jal	ra,2576 <USART_DMACmd>
    1602:	4581                	li	a1,0
    1604:	400207b7          	lui	a5,0x40020
    1608:	06c78513          	addi	a0,a5,108 # 4002006c <_eusrstack+0x2001b06c>
    160c:	2de1                	jal	1ce4 <DMA_Cmd>
    160e:	4581                	li	a1,0
    1610:	400207b7          	lui	a5,0x40020
    1614:	08078513          	addi	a0,a5,128 # 40020080 <_eusrstack+0x2001b080>
    1618:	25f1                	jal	1ce4 <DMA_Cmd>
    161a:	fed44703          	lbu	a4,-19(s0)
    161e:	fee44783          	lbu	a5,-18(s0)
    1622:	863a                	mv	a2,a4
    1624:	85be                	mv	a1,a5
    1626:	fe842503          	lw	a0,-24(s0)
    162a:	3ec1                	jal	11fa <UART2_CfgInit>
    162c:	4601                	li	a2,0
    162e:	200007b7          	lui	a5,0x20000
    1632:	15078593          	addi	a1,a5,336 # 20000150 <UART2_Tx_Buf>
    1636:	4501                	li	a0,0
    1638:	35b5                	jal	14a4 <UART2_DMAInit>
    163a:	6785                	lui	a5,0x1
    163c:	80078613          	addi	a2,a5,-2048 # 800 <__stack_size>
    1640:	200007b7          	lui	a5,0x20000
    1644:	55078593          	addi	a1,a5,1360 # 20000550 <UART2_Rx_Buf>
    1648:	4505                	li	a0,1
    164a:	3da9                	jal	14a4 <UART2_DMAInit>
    164c:	4605                	li	a2,1
    164e:	04000593          	li	a1,64
    1652:	400047b7          	lui	a5,0x40004
    1656:	40078513          	addi	a0,a5,1024 # 40004400 <_eusrstack+0x1ffff400>
    165a:	71d000ef          	jal	ra,2576 <USART_DMACmd>
    165e:	fef44783          	lbu	a5,-17(s0)
    1662:	853e                	mv	a0,a5
    1664:	3b1d                	jal	139a <UART2_ParaInit>
    1666:	0001                	nop
    1668:	40f2                	lw	ra,28(sp)
    166a:	4462                	lw	s0,24(sp)
    166c:	6105                	addi	sp,sp,32
    166e:	8082                	ret

00001670 <UART2_USB_Init>:
    1670:	1101                	addi	sp,sp,-32
    1672:	ce06                	sw	ra,28(sp)
    1674:	cc22                	sw	s0,24(sp)
    1676:	1000                	addi	s0,sp,32
    1678:	8f818793          	addi	a5,gp,-1800 # 20000108 <Uart>
    167c:	03d7c783          	lbu	a5,61(a5)
    1680:	0ff7f793          	andi	a5,a5,255
    1684:	07e2                	slli	a5,a5,0x18
    1686:	873e                	mv	a4,a5
    1688:	8f818793          	addi	a5,gp,-1800 # 20000108 <Uart>
    168c:	03c7c783          	lbu	a5,60(a5)
    1690:	0ff7f793          	andi	a5,a5,255
    1694:	07c2                	slli	a5,a5,0x10
    1696:	97ba                	add	a5,a5,a4
    1698:	fef42623          	sw	a5,-20(s0)
    169c:	8f818793          	addi	a5,gp,-1800 # 20000108 <Uart>
    16a0:	03b7c783          	lbu	a5,59(a5)
    16a4:	0ff7f793          	andi	a5,a5,255
    16a8:	07a2                	slli	a5,a5,0x8
    16aa:	873e                	mv	a4,a5
    16ac:	8f818793          	addi	a5,gp,-1800 # 20000108 <Uart>
    16b0:	03a7c783          	lbu	a5,58(a5)
    16b4:	0ff7f793          	andi	a5,a5,255
    16b8:	97ba                	add	a5,a5,a4
    16ba:	fec42703          	lw	a4,-20(s0)
    16be:	97ba                	add	a5,a5,a4
    16c0:	fef42623          	sw	a5,-20(s0)
    16c4:	8f818793          	addi	a5,gp,-1800 # 20000108 <Uart>
    16c8:	03e7c783          	lbu	a5,62(a5)
    16cc:	fef405a3          	sb	a5,-21(s0)
    16d0:	8f818793          	addi	a5,gp,-1800 # 20000108 <Uart>
    16d4:	03f7c783          	lbu	a5,63(a5)
    16d8:	fef40523          	sb	a5,-22(s0)
    16dc:	fea44703          	lbu	a4,-22(s0)
    16e0:	feb44783          	lbu	a5,-21(s0)
    16e4:	86ba                	mv	a3,a4
    16e6:	863e                	mv	a2,a5
    16e8:	fec42583          	lw	a1,-20(s0)
    16ec:	4501                	li	a0,0
    16ee:	35cd                	jal	15d0 <UART2_Init>
    16f0:	500007b7          	lui	a5,0x50000
    16f4:	20000737          	lui	a4,0x20000
    16f8:	15070713          	addi	a4,a4,336 # 20000150 <UART2_Tx_Buf>
    16fc:	cf98                	sw	a4,24(a5)
    16fe:	500007b7          	lui	a5,0x50000
    1702:	03b7c783          	lbu	a5,59(a5) # 5000003b <_eusrstack+0x2fffb03b>
    1706:	0ff7f713          	andi	a4,a5,255
    170a:	500007b7          	lui	a5,0x50000
    170e:	9b71                	andi	a4,a4,-4
    1710:	0ff77713          	andi	a4,a4,255
    1714:	02e78da3          	sb	a4,59(a5) # 5000003b <_eusrstack+0x2fffb03b>
    1718:	50000737          	lui	a4,0x50000
    171c:	500007b7          	lui	a5,0x50000
    1720:	03b74703          	lbu	a4,59(a4) # 5000003b <_eusrstack+0x2fffb03b>
    1724:	0ff77713          	andi	a4,a4,255
    1728:	02e78da3          	sb	a4,59(a5) # 5000003b <_eusrstack+0x2fffb03b>
    172c:	0001                	nop
    172e:	40f2                	lw	ra,28(sp)
    1730:	4462                	lw	s0,24(sp)
    1732:	6105                	addi	sp,sp,32
    1734:	8082                	ret

00001736 <NMI_Handler>:
    1736:	1141                	addi	sp,sp,-16
    1738:	c622                	sw	s0,12(sp)
    173a:	0800                	addi	s0,sp,16
    173c:	a001                	j	173c <NMI_Handler+0x6>

0000173e <TIM2_IRQHandler>:
    173e:	1141                	addi	sp,sp,-16
    1740:	c622                	sw	s0,12(sp)
    1742:	0800                	addi	s0,sp,16
    1744:	8301c783          	lbu	a5,-2000(gp) # 20000040 <tog.5044>
    1748:	cb81                	beqz	a5,1758 <TIM2_IRQHandler+0x1a>
    174a:	400117b7          	lui	a5,0x40011
    174e:	80078793          	addi	a5,a5,-2048 # 40010800 <_eusrstack+0x2000b800>
    1752:	6721                	lui	a4,0x8
    1754:	cb98                	sw	a4,16(a5)
    1756:	a039                	j	1764 <TIM2_IRQHandler+0x26>
    1758:	400117b7          	lui	a5,0x40011
    175c:	80078793          	addi	a5,a5,-2048 # 40010800 <_eusrstack+0x2000b800>
    1760:	6721                	lui	a4,0x8
    1762:	cbd8                	sw	a4,20(a5)
    1764:	8301c783          	lbu	a5,-2000(gp) # 20000040 <tog.5044>
    1768:	0017c793          	xori	a5,a5,1
    176c:	0ff7f713          	andi	a4,a5,255
    1770:	82e18823          	sb	a4,-2000(gp) # 20000040 <tog.5044>
    1774:	8f818793          	addi	a5,gp,-1800 # 20000108 <Uart>
    1778:	23fc                	lbu	a5,6(a5)
    177a:	0ff7f793          	andi	a5,a5,255
    177e:	0785                	addi	a5,a5,1
    1780:	0ff7f713          	andi	a4,a5,255
    1784:	8f818793          	addi	a5,gp,-1800 # 20000108 <Uart>
    1788:	a3f8                	sb	a4,6(a5)
    178a:	8f818713          	addi	a4,gp,-1800 # 20000108 <Uart>
    178e:	03674703          	lbu	a4,54(a4) # 8036 <_data_lma+0x5742>
    1792:	0ff77713          	andi	a4,a4,255
    1796:	8f818793          	addi	a5,gp,-1800 # 20000108 <Uart>
    179a:	0377c783          	lbu	a5,55(a5)
    179e:	0ff7f793          	andi	a5,a5,255
    17a2:	07a2                	slli	a5,a5,0x8
    17a4:	8fd9                	or	a5,a5,a4
    17a6:	07c2                	slli	a5,a5,0x10
    17a8:	83c1                	srli	a5,a5,0x10
    17aa:	0785                	addi	a5,a5,1
    17ac:	01079713          	slli	a4,a5,0x10
    17b0:	8341                	srli	a4,a4,0x10
    17b2:	8f818793          	addi	a5,gp,-1800 # 20000108 <Uart>
    17b6:	0ff77593          	andi	a1,a4,255
    17ba:	0367c683          	lbu	a3,54(a5)
    17be:	8a81                	andi	a3,a3,0
    17c0:	8636                	mv	a2,a3
    17c2:	86ae                	mv	a3,a1
    17c4:	8ed1                	or	a3,a3,a2
    17c6:	02d78b23          	sb	a3,54(a5)
    17ca:	8321                	srli	a4,a4,0x8
    17cc:	01071613          	slli	a2,a4,0x10
    17d0:	8241                	srli	a2,a2,0x10
    17d2:	0377c703          	lbu	a4,55(a5)
    17d6:	8b01                	andi	a4,a4,0
    17d8:	86ba                	mv	a3,a4
    17da:	8732                	mv	a4,a2
    17dc:	8f55                	or	a4,a4,a3
    17de:	02e78ba3          	sb	a4,55(a5)
    17e2:	400007b7          	lui	a5,0x40000
    17e6:	5779                	li	a4,-2
    17e8:	ab9a                	sh	a4,16(a5)
    17ea:	0001                	nop
    17ec:	4432                	lw	s0,12(sp)
    17ee:	0141                	addi	sp,sp,16
    17f0:	30200073          	mret

000017f4 <HardFault_Handler>:
    17f4:	1141                	addi	sp,sp,-16
    17f6:	c622                	sw	s0,12(sp)
    17f8:	0800                	addi	s0,sp,16
    17fa:	a001                	j	17fa <HardFault_Handler+0x6>

000017fc <GPIO_Toggle_INIT>:
    17fc:	1101                	addi	sp,sp,-32
    17fe:	ce06                	sw	ra,28(sp)
    1800:	cc22                	sw	s0,24(sp)
    1802:	1000                	addi	s0,sp,32
    1804:	fe042223          	sw	zero,-28(s0)
    1808:	fe042423          	sw	zero,-24(s0)
    180c:	fe042623          	sw	zero,-20(s0)
    1810:	4585                	li	a1,1
    1812:	4541                	li	a0,16
    1814:	2cd000ef          	jal	ra,22e0 <RCC_APB2PeriphClockCmd>
    1818:	6789                	lui	a5,0x2
    181a:	fef41223          	sh	a5,-28(s0)
    181e:	47c1                	li	a5,16
    1820:	fef42623          	sw	a5,-20(s0)
    1824:	478d                	li	a5,3
    1826:	fef42423          	sw	a5,-24(s0)
    182a:	fe440793          	addi	a5,s0,-28
    182e:	85be                	mv	a1,a5
    1830:	40011537          	lui	a0,0x40011
    1834:	29c5                	jal	1d24 <GPIO_Init>
    1836:	0001                	nop
    1838:	40f2                	lw	ra,28(sp)
    183a:	4462                	lw	s0,24(sp)
    183c:	6105                	addi	sp,sp,32
    183e:	8082                	ret

00001840 <main>:
    1840:	1101                	addi	sp,sp,-32
    1842:	ce06                	sw	ra,28(sp)
    1844:	cc22                	sw	s0,24(sp)
    1846:	1000                	addi	s0,sp,32
    1848:	fe0407a3          	sb	zero,-17(s0)
    184c:	5bf000ef          	jal	ra,260a <Delay_Init>
    1850:	975ff0ef          	jal	ra,11c4 <RCC_Configuration>
    1854:	8adfe0ef          	jal	ra,100 <USBFS_RCC_Init>
    1858:	4505                	li	a0,1
    185a:	9cbfe0ef          	jal	ra,224 <USBFS_Device_Init>
    185e:	3e800513          	li	a0,1000
    1862:	673000ef          	jal	ra,26d4 <Delay_Ms>
    1866:	3f59                	jal	17fc <GPIO_Toggle_INIT>
    1868:	678d                	lui	a5,0x3
    186a:	81c78793          	addi	a5,a5,-2020 # 281c <strlen+0x12>
    186e:	fef42423          	sw	a5,-24(s0)
    1872:	fe842503          	lw	a0,-24(s0)
    1876:	795000ef          	jal	ra,280a <strlen>
    187a:	87aa                	mv	a5,a0
    187c:	07c2                	slli	a5,a5,0x10
    187e:	83c1                	srli	a5,a5,0x10
    1880:	4685                	li	a3,1
    1882:	863e                	mv	a2,a5
    1884:	fe842583          	lw	a1,-24(s0)
    1888:	450d                	li	a0,3
    188a:	a53fe0ef          	jal	ra,2dc <USBFS_Endp_DataUp>
    188e:	fef44783          	lbu	a5,-17(s0)
    1892:	e791                	bnez	a5,189e <main+0x5e>
    1894:	4785                	li	a5,1
    1896:	fef407a3          	sb	a5,-17(s0)
    189a:	4785                	li	a5,1
    189c:	a021                	j	18a4 <main+0x64>
    189e:	fe0407a3          	sb	zero,-17(s0)
    18a2:	4781                	li	a5,0
    18a4:	863e                	mv	a2,a5
    18a6:	6589                	lui	a1,0x2
    18a8:	40011537          	lui	a0,0x40011
    18ac:	2f19                	jal	1fc2 <GPIO_WriteBit>
    18ae:	0fa00513          	li	a0,250
    18b2:	623000ef          	jal	ra,26d4 <Delay_Ms>
    18b6:	bf75                	j	1872 <main+0x32>

000018b8 <SystemInit>:
    18b8:	1141                	addi	sp,sp,-16
    18ba:	c606                	sw	ra,12(sp)
    18bc:	c422                	sw	s0,8(sp)
    18be:	0800                	addi	s0,sp,16
    18c0:	400217b7          	lui	a5,0x40021
    18c4:	4398                	lw	a4,0(a5)
    18c6:	400217b7          	lui	a5,0x40021
    18ca:	00176713          	ori	a4,a4,1
    18ce:	c398                	sw	a4,0(a5)
    18d0:	400217b7          	lui	a5,0x40021
    18d4:	43d4                	lw	a3,4(a5)
    18d6:	400217b7          	lui	a5,0x40021
    18da:	f0ff0737          	lui	a4,0xf0ff0
    18de:	8f75                	and	a4,a4,a3
    18e0:	c3d8                	sw	a4,4(a5)
    18e2:	400217b7          	lui	a5,0x40021
    18e6:	4394                	lw	a3,0(a5)
    18e8:	400217b7          	lui	a5,0x40021
    18ec:	fef70737          	lui	a4,0xfef70
    18f0:	177d                	addi	a4,a4,-1
    18f2:	8f75                	and	a4,a4,a3
    18f4:	c398                	sw	a4,0(a5)
    18f6:	400217b7          	lui	a5,0x40021
    18fa:	4394                	lw	a3,0(a5)
    18fc:	400217b7          	lui	a5,0x40021
    1900:	fffc0737          	lui	a4,0xfffc0
    1904:	177d                	addi	a4,a4,-1
    1906:	8f75                	and	a4,a4,a3
    1908:	c398                	sw	a4,0(a5)
    190a:	400217b7          	lui	a5,0x40021
    190e:	43d4                	lw	a3,4(a5)
    1910:	400217b7          	lui	a5,0x40021
    1914:	ff010737          	lui	a4,0xff010
    1918:	177d                	addi	a4,a4,-1
    191a:	8f75                	and	a4,a4,a3
    191c:	c3d8                	sw	a4,4(a5)
    191e:	400217b7          	lui	a5,0x40021
    1922:	009f0737          	lui	a4,0x9f0
    1926:	c798                	sw	a4,8(a5)
    1928:	2031                	jal	1934 <SetSysClock>
    192a:	0001                	nop
    192c:	40b2                	lw	ra,12(sp)
    192e:	4422                	lw	s0,8(sp)
    1930:	0141                	addi	sp,sp,16
    1932:	8082                	ret

00001934 <SetSysClock>:
    1934:	1141                	addi	sp,sp,-16
    1936:	c606                	sw	ra,12(sp)
    1938:	c422                	sw	s0,8(sp)
    193a:	0800                	addi	s0,sp,16
    193c:	2031                	jal	1948 <SetSysClockTo96_HSE>
    193e:	0001                	nop
    1940:	40b2                	lw	ra,12(sp)
    1942:	4422                	lw	s0,8(sp)
    1944:	0141                	addi	sp,sp,16
    1946:	8082                	ret

00001948 <SetSysClockTo96_HSE>:
    1948:	1101                	addi	sp,sp,-32
    194a:	ce22                	sw	s0,28(sp)
    194c:	1000                	addi	s0,sp,32
    194e:	fe042623          	sw	zero,-20(s0)
    1952:	fe042423          	sw	zero,-24(s0)
    1956:	400217b7          	lui	a5,0x40021
    195a:	4394                	lw	a3,0(a5)
    195c:	400217b7          	lui	a5,0x40021
    1960:	6741                	lui	a4,0x10
    1962:	8f55                	or	a4,a4,a3
    1964:	c398                	sw	a4,0(a5)
    1966:	400217b7          	lui	a5,0x40021
    196a:	4398                	lw	a4,0(a5)
    196c:	000207b7          	lui	a5,0x20
    1970:	8ff9                	and	a5,a5,a4
    1972:	fef42423          	sw	a5,-24(s0)
    1976:	fec42783          	lw	a5,-20(s0)
    197a:	0785                	addi	a5,a5,1
    197c:	fef42623          	sw	a5,-20(s0)
    1980:	fe842783          	lw	a5,-24(s0)
    1984:	e791                	bnez	a5,1990 <SetSysClockTo96_HSE+0x48>
    1986:	fec42703          	lw	a4,-20(s0)
    198a:	6785                	lui	a5,0x1
    198c:	fcf71de3          	bne	a4,a5,1966 <SetSysClockTo96_HSE+0x1e>
    1990:	400217b7          	lui	a5,0x40021
    1994:	4398                	lw	a4,0(a5)
    1996:	000207b7          	lui	a5,0x20
    199a:	8ff9                	and	a5,a5,a4
    199c:	c789                	beqz	a5,19a6 <SetSysClockTo96_HSE+0x5e>
    199e:	4785                	li	a5,1
    19a0:	fef42423          	sw	a5,-24(s0)
    19a4:	a019                	j	19aa <SetSysClockTo96_HSE+0x62>
    19a6:	fe042423          	sw	zero,-24(s0)
    19aa:	fe842703          	lw	a4,-24(s0)
    19ae:	4785                	li	a5,1
    19b0:	0af71263          	bne	a4,a5,1a54 <SetSysClockTo96_HSE+0x10c>
    19b4:	40021737          	lui	a4,0x40021
    19b8:	400217b7          	lui	a5,0x40021
    19bc:	4358                	lw	a4,4(a4)
    19be:	c3d8                	sw	a4,4(a5)
    19c0:	40021737          	lui	a4,0x40021
    19c4:	400217b7          	lui	a5,0x40021
    19c8:	4358                	lw	a4,4(a4)
    19ca:	c3d8                	sw	a4,4(a5)
    19cc:	400217b7          	lui	a5,0x40021
    19d0:	43d8                	lw	a4,4(a5)
    19d2:	400217b7          	lui	a5,0x40021
    19d6:	40076713          	ori	a4,a4,1024
    19da:	c3d8                	sw	a4,4(a5)
    19dc:	400217b7          	lui	a5,0x40021
    19e0:	43d4                	lw	a3,4(a5)
    19e2:	400217b7          	lui	a5,0x40021
    19e6:	ffc10737          	lui	a4,0xffc10
    19ea:	177d                	addi	a4,a4,-1
    19ec:	8f75                	and	a4,a4,a3
    19ee:	c3d8                	sw	a4,4(a5)
    19f0:	400217b7          	lui	a5,0x40021
    19f4:	43d4                	lw	a3,4(a5)
    19f6:	400217b7          	lui	a5,0x40021
    19fa:	00290737          	lui	a4,0x290
    19fe:	8f55                	or	a4,a4,a3
    1a00:	c3d8                	sw	a4,4(a5)
    1a02:	400217b7          	lui	a5,0x40021
    1a06:	4394                	lw	a3,0(a5)
    1a08:	400217b7          	lui	a5,0x40021
    1a0c:	01000737          	lui	a4,0x1000
    1a10:	8f55                	or	a4,a4,a3
    1a12:	c398                	sw	a4,0(a5)
    1a14:	0001                	nop
    1a16:	400217b7          	lui	a5,0x40021
    1a1a:	4398                	lw	a4,0(a5)
    1a1c:	020007b7          	lui	a5,0x2000
    1a20:	8ff9                	and	a5,a5,a4
    1a22:	dbf5                	beqz	a5,1a16 <SetSysClockTo96_HSE+0xce>
    1a24:	400217b7          	lui	a5,0x40021
    1a28:	43d8                	lw	a4,4(a5)
    1a2a:	400217b7          	lui	a5,0x40021
    1a2e:	9b71                	andi	a4,a4,-4
    1a30:	c3d8                	sw	a4,4(a5)
    1a32:	400217b7          	lui	a5,0x40021
    1a36:	43d8                	lw	a4,4(a5)
    1a38:	400217b7          	lui	a5,0x40021
    1a3c:	00276713          	ori	a4,a4,2
    1a40:	c3d8                	sw	a4,4(a5)
    1a42:	0001                	nop
    1a44:	400217b7          	lui	a5,0x40021
    1a48:	43dc                	lw	a5,4(a5)
    1a4a:	00c7f713          	andi	a4,a5,12
    1a4e:	47a1                	li	a5,8
    1a50:	fef71ae3          	bne	a4,a5,1a44 <SetSysClockTo96_HSE+0xfc>
    1a54:	0001                	nop
    1a56:	4472                	lw	s0,28(sp)
    1a58:	6105                	addi	sp,sp,32
    1a5a:	8082                	ret

00001a5c <ADC1_2_IRQHandler>:
    1a5c:	a001                	j	1a5c <ADC1_2_IRQHandler>

00001a5e <handle_reset>:
    1a5e:	1ffff197          	auipc	gp,0x1ffff
    1a62:	db218193          	addi	gp,gp,-590 # 20000810 <__global_pointer$>
    1a66:	20003117          	auipc	sp,0x20003
    1a6a:	59a10113          	addi	sp,sp,1434 # 20005000 <_eusrstack>
    1a6e:	00001517          	auipc	a0,0x1
    1a72:	e8650513          	addi	a0,a0,-378 # 28f4 <_data_lma>
    1a76:	1fffe597          	auipc	a1,0x1fffe
    1a7a:	58a58593          	addi	a1,a1,1418 # 20000000 <_data_vma>
    1a7e:	81018613          	addi	a2,gp,-2032 # 20000020 <_edata>
    1a82:	00c5fa63          	bgeu	a1,a2,1a96 <handle_reset+0x38>
    1a86:	00052283          	lw	t0,0(a0)
    1a8a:	0055a023          	sw	t0,0(a1)
    1a8e:	0511                	addi	a0,a0,4
    1a90:	0591                	addi	a1,a1,4
    1a92:	fec5eae3          	bltu	a1,a2,1a86 <handle_reset+0x28>
    1a96:	81018513          	addi	a0,gp,-2032 # 20000020 <_edata>
    1a9a:	54018593          	addi	a1,gp,1344 # 20000d50 <_ebss>
    1a9e:	00b57763          	bgeu	a0,a1,1aac <handle_reset+0x4e>
    1aa2:	00052023          	sw	zero,0(a0)
    1aa6:	0511                	addi	a0,a0,4
    1aa8:	feb56de3          	bltu	a0,a1,1aa2 <handle_reset+0x44>
    1aac:	42fd                	li	t0,31
    1aae:	bc029073          	csrw	0xbc0,t0
    1ab2:	428d                	li	t0,3
    1ab4:	80429073          	csrw	0x804,t0
    1ab8:	08800293          	li	t0,136
    1abc:	30029073          	csrw	mstatus,t0
    1ac0:	ffffe297          	auipc	t0,0xffffe
    1ac4:	54428293          	addi	t0,t0,1348 # 4 <_einit>
    1ac8:	0032e293          	ori	t0,t0,3
    1acc:	30529073          	csrw	mtvec,t0
    1ad0:	de9ff0ef          	jal	ra,18b8 <SystemInit>
    1ad4:	00000297          	auipc	t0,0x0
    1ad8:	d6c28293          	addi	t0,t0,-660 # 1840 <main>
    1adc:	34129073          	csrw	mepc,t0
    1ae0:	30200073          	mret

00001ae4 <DMA_DeInit>:
    1ae4:	1101                	addi	sp,sp,-32
    1ae6:	ce22                	sw	s0,28(sp)
    1ae8:	1000                	addi	s0,sp,32
    1aea:	fea42623          	sw	a0,-20(s0)
    1aee:	fec42783          	lw	a5,-20(s0)
    1af2:	4398                	lw	a4,0(a5)
    1af4:	67c1                	lui	a5,0x10
    1af6:	17f9                	addi	a5,a5,-2
    1af8:	8f7d                	and	a4,a4,a5
    1afa:	fec42783          	lw	a5,-20(s0)
    1afe:	c398                	sw	a4,0(a5)
    1b00:	fec42783          	lw	a5,-20(s0)
    1b04:	0007a023          	sw	zero,0(a5) # 10000 <_data_lma+0xd70c>
    1b08:	fec42783          	lw	a5,-20(s0)
    1b0c:	0007a223          	sw	zero,4(a5)
    1b10:	fec42783          	lw	a5,-20(s0)
    1b14:	0007a423          	sw	zero,8(a5)
    1b18:	fec42783          	lw	a5,-20(s0)
    1b1c:	0007a623          	sw	zero,12(a5)
    1b20:	fec42703          	lw	a4,-20(s0)
    1b24:	400207b7          	lui	a5,0x40020
    1b28:	07a1                	addi	a5,a5,8
    1b2a:	00f71b63          	bne	a4,a5,1b40 <DMA_DeInit+0x5c>
    1b2e:	400207b7          	lui	a5,0x40020
    1b32:	43d8                	lw	a4,4(a5)
    1b34:	400207b7          	lui	a5,0x40020
    1b38:	00f76713          	ori	a4,a4,15
    1b3c:	c3d8                	sw	a4,4(a5)
    1b3e:	a8dd                	j	1c34 <DMA_DeInit+0x150>
    1b40:	fec42703          	lw	a4,-20(s0)
    1b44:	400207b7          	lui	a5,0x40020
    1b48:	07f1                	addi	a5,a5,28
    1b4a:	00f71b63          	bne	a4,a5,1b60 <DMA_DeInit+0x7c>
    1b4e:	400207b7          	lui	a5,0x40020
    1b52:	43d8                	lw	a4,4(a5)
    1b54:	400207b7          	lui	a5,0x40020
    1b58:	0f076713          	ori	a4,a4,240
    1b5c:	c3d8                	sw	a4,4(a5)
    1b5e:	a8d9                	j	1c34 <DMA_DeInit+0x150>
    1b60:	fec42703          	lw	a4,-20(s0)
    1b64:	400207b7          	lui	a5,0x40020
    1b68:	03078793          	addi	a5,a5,48 # 40020030 <_eusrstack+0x2001b030>
    1b6c:	00f71d63          	bne	a4,a5,1b86 <DMA_DeInit+0xa2>
    1b70:	400207b7          	lui	a5,0x40020
    1b74:	43d4                	lw	a3,4(a5)
    1b76:	400207b7          	lui	a5,0x40020
    1b7a:	6705                	lui	a4,0x1
    1b7c:	f0070713          	addi	a4,a4,-256 # f00 <__stack_size+0x700>
    1b80:	8f55                	or	a4,a4,a3
    1b82:	c3d8                	sw	a4,4(a5)
    1b84:	a845                	j	1c34 <DMA_DeInit+0x150>
    1b86:	fec42703          	lw	a4,-20(s0)
    1b8a:	400207b7          	lui	a5,0x40020
    1b8e:	04478793          	addi	a5,a5,68 # 40020044 <_eusrstack+0x2001b044>
    1b92:	00f71b63          	bne	a4,a5,1ba8 <DMA_DeInit+0xc4>
    1b96:	400207b7          	lui	a5,0x40020
    1b9a:	43d4                	lw	a3,4(a5)
    1b9c:	400207b7          	lui	a5,0x40020
    1ba0:	673d                	lui	a4,0xf
    1ba2:	8f55                	or	a4,a4,a3
    1ba4:	c3d8                	sw	a4,4(a5)
    1ba6:	a079                	j	1c34 <DMA_DeInit+0x150>
    1ba8:	fec42703          	lw	a4,-20(s0)
    1bac:	400207b7          	lui	a5,0x40020
    1bb0:	05878793          	addi	a5,a5,88 # 40020058 <_eusrstack+0x2001b058>
    1bb4:	00f71c63          	bne	a4,a5,1bcc <DMA_DeInit+0xe8>
    1bb8:	400207b7          	lui	a5,0x40020
    1bbc:	43d4                	lw	a3,4(a5)
    1bbe:	400207b7          	lui	a5,0x40020
    1bc2:	000f0737          	lui	a4,0xf0
    1bc6:	8f55                	or	a4,a4,a3
    1bc8:	c3d8                	sw	a4,4(a5)
    1bca:	a0ad                	j	1c34 <DMA_DeInit+0x150>
    1bcc:	fec42703          	lw	a4,-20(s0)
    1bd0:	400207b7          	lui	a5,0x40020
    1bd4:	06c78793          	addi	a5,a5,108 # 4002006c <_eusrstack+0x2001b06c>
    1bd8:	00f71c63          	bne	a4,a5,1bf0 <DMA_DeInit+0x10c>
    1bdc:	400207b7          	lui	a5,0x40020
    1be0:	43d4                	lw	a3,4(a5)
    1be2:	400207b7          	lui	a5,0x40020
    1be6:	00f00737          	lui	a4,0xf00
    1bea:	8f55                	or	a4,a4,a3
    1bec:	c3d8                	sw	a4,4(a5)
    1bee:	a099                	j	1c34 <DMA_DeInit+0x150>
    1bf0:	fec42703          	lw	a4,-20(s0)
    1bf4:	400207b7          	lui	a5,0x40020
    1bf8:	08078793          	addi	a5,a5,128 # 40020080 <_eusrstack+0x2001b080>
    1bfc:	00f71c63          	bne	a4,a5,1c14 <DMA_DeInit+0x130>
    1c00:	400207b7          	lui	a5,0x40020
    1c04:	43d4                	lw	a3,4(a5)
    1c06:	400207b7          	lui	a5,0x40020
    1c0a:	0f000737          	lui	a4,0xf000
    1c0e:	8f55                	or	a4,a4,a3
    1c10:	c3d8                	sw	a4,4(a5)
    1c12:	a00d                	j	1c34 <DMA_DeInit+0x150>
    1c14:	fec42703          	lw	a4,-20(s0)
    1c18:	400207b7          	lui	a5,0x40020
    1c1c:	09478793          	addi	a5,a5,148 # 40020094 <_eusrstack+0x2001b094>
    1c20:	00f71a63          	bne	a4,a5,1c34 <DMA_DeInit+0x150>
    1c24:	400207b7          	lui	a5,0x40020
    1c28:	43d8                	lw	a4,4(a5)
    1c2a:	400207b7          	lui	a5,0x40020
    1c2e:	00f76713          	ori	a4,a4,15
    1c32:	c3d8                	sw	a4,4(a5)
    1c34:	0001                	nop
    1c36:	4472                	lw	s0,28(sp)
    1c38:	6105                	addi	sp,sp,32
    1c3a:	8082                	ret

00001c3c <DMA_Init>:
    1c3c:	7179                	addi	sp,sp,-48
    1c3e:	d622                	sw	s0,44(sp)
    1c40:	1800                	addi	s0,sp,48
    1c42:	fca42e23          	sw	a0,-36(s0)
    1c46:	fcb42c23          	sw	a1,-40(s0)
    1c4a:	fe042623          	sw	zero,-20(s0)
    1c4e:	fdc42783          	lw	a5,-36(s0)
    1c52:	439c                	lw	a5,0(a5)
    1c54:	fef42623          	sw	a5,-20(s0)
    1c58:	fec42703          	lw	a4,-20(s0)
    1c5c:	77e1                	lui	a5,0xffff8
    1c5e:	07bd                	addi	a5,a5,15
    1c60:	8ff9                	and	a5,a5,a4
    1c62:	fef42623          	sw	a5,-20(s0)
    1c66:	fd842783          	lw	a5,-40(s0)
    1c6a:	4798                	lw	a4,8(a5)
    1c6c:	fd842783          	lw	a5,-40(s0)
    1c70:	539c                	lw	a5,32(a5)
    1c72:	8f5d                	or	a4,a4,a5
    1c74:	fd842783          	lw	a5,-40(s0)
    1c78:	4b9c                	lw	a5,16(a5)
    1c7a:	8f5d                	or	a4,a4,a5
    1c7c:	fd842783          	lw	a5,-40(s0)
    1c80:	4bdc                	lw	a5,20(a5)
    1c82:	8f5d                	or	a4,a4,a5
    1c84:	fd842783          	lw	a5,-40(s0)
    1c88:	4f9c                	lw	a5,24(a5)
    1c8a:	8f5d                	or	a4,a4,a5
    1c8c:	fd842783          	lw	a5,-40(s0)
    1c90:	4fdc                	lw	a5,28(a5)
    1c92:	8f5d                	or	a4,a4,a5
    1c94:	fd842783          	lw	a5,-40(s0)
    1c98:	53dc                	lw	a5,36(a5)
    1c9a:	8f5d                	or	a4,a4,a5
    1c9c:	fd842783          	lw	a5,-40(s0)
    1ca0:	579c                	lw	a5,40(a5)
    1ca2:	8fd9                	or	a5,a5,a4
    1ca4:	fec42703          	lw	a4,-20(s0)
    1ca8:	8fd9                	or	a5,a5,a4
    1caa:	fef42623          	sw	a5,-20(s0)
    1cae:	fdc42783          	lw	a5,-36(s0)
    1cb2:	fec42703          	lw	a4,-20(s0)
    1cb6:	c398                	sw	a4,0(a5)
    1cb8:	fd842783          	lw	a5,-40(s0)
    1cbc:	47d8                	lw	a4,12(a5)
    1cbe:	fdc42783          	lw	a5,-36(s0)
    1cc2:	c3d8                	sw	a4,4(a5)
    1cc4:	fd842783          	lw	a5,-40(s0)
    1cc8:	4398                	lw	a4,0(a5)
    1cca:	fdc42783          	lw	a5,-36(s0)
    1cce:	c798                	sw	a4,8(a5)
    1cd0:	fd842783          	lw	a5,-40(s0)
    1cd4:	43d8                	lw	a4,4(a5)
    1cd6:	fdc42783          	lw	a5,-36(s0)
    1cda:	c7d8                	sw	a4,12(a5)
    1cdc:	0001                	nop
    1cde:	5432                	lw	s0,44(sp)
    1ce0:	6145                	addi	sp,sp,48
    1ce2:	8082                	ret

00001ce4 <DMA_Cmd>:
    1ce4:	1101                	addi	sp,sp,-32
    1ce6:	ce22                	sw	s0,28(sp)
    1ce8:	1000                	addi	s0,sp,32
    1cea:	fea42623          	sw	a0,-20(s0)
    1cee:	feb42423          	sw	a1,-24(s0)
    1cf2:	fe842783          	lw	a5,-24(s0)
    1cf6:	cb91                	beqz	a5,1d0a <DMA_Cmd+0x26>
    1cf8:	fec42783          	lw	a5,-20(s0)
    1cfc:	439c                	lw	a5,0(a5)
    1cfe:	0017e713          	ori	a4,a5,1
    1d02:	fec42783          	lw	a5,-20(s0)
    1d06:	c398                	sw	a4,0(a5)
    1d08:	a811                	j	1d1c <DMA_Cmd+0x38>
    1d0a:	fec42783          	lw	a5,-20(s0)
    1d0e:	4398                	lw	a4,0(a5)
    1d10:	67c1                	lui	a5,0x10
    1d12:	17f9                	addi	a5,a5,-2
    1d14:	8f7d                	and	a4,a4,a5
    1d16:	fec42783          	lw	a5,-20(s0)
    1d1a:	c398                	sw	a4,0(a5)
    1d1c:	0001                	nop
    1d1e:	4472                	lw	s0,28(sp)
    1d20:	6105                	addi	sp,sp,32
    1d22:	8082                	ret

00001d24 <GPIO_Init>:
    1d24:	7139                	addi	sp,sp,-64
    1d26:	de22                	sw	s0,60(sp)
    1d28:	0080                	addi	s0,sp,64
    1d2a:	fca42623          	sw	a0,-52(s0)
    1d2e:	fcb42423          	sw	a1,-56(s0)
    1d32:	fe042623          	sw	zero,-20(s0)
    1d36:	fe042023          	sw	zero,-32(s0)
    1d3a:	fe042423          	sw	zero,-24(s0)
    1d3e:	fc042e23          	sw	zero,-36(s0)
    1d42:	fe042223          	sw	zero,-28(s0)
    1d46:	fc042c23          	sw	zero,-40(s0)
    1d4a:	fc842783          	lw	a5,-56(s0)
    1d4e:	479c                	lw	a5,8(a5)
    1d50:	8bbd                	andi	a5,a5,15
    1d52:	fef42623          	sw	a5,-20(s0)
    1d56:	fc842783          	lw	a5,-56(s0)
    1d5a:	479c                	lw	a5,8(a5)
    1d5c:	8bc1                	andi	a5,a5,16
    1d5e:	cb89                	beqz	a5,1d70 <GPIO_Init+0x4c>
    1d60:	fc842783          	lw	a5,-56(s0)
    1d64:	43dc                	lw	a5,4(a5)
    1d66:	fec42703          	lw	a4,-20(s0)
    1d6a:	8fd9                	or	a5,a5,a4
    1d6c:	fef42623          	sw	a5,-20(s0)
    1d70:	400227b7          	lui	a5,0x40022
    1d74:	03078793          	addi	a5,a5,48 # 40022030 <_eusrstack+0x2001d030>
    1d78:	4398                	lw	a4,0(a5)
    1d7a:	0f0007b7          	lui	a5,0xf000
    1d7e:	8ff9                	and	a5,a5,a4
    1d80:	e781                	bnez	a5,1d88 <GPIO_Init+0x64>
    1d82:	4705                	li	a4,1
    1d84:	82e188a3          	sb	a4,-1999(gp) # 20000041 <MCU_Version>
    1d88:	fcc42703          	lw	a4,-52(s0)
    1d8c:	400117b7          	lui	a5,0x40011
    1d90:	00f71f63          	bne	a4,a5,1dae <GPIO_Init+0x8a>
    1d94:	8311c783          	lbu	a5,-1999(gp) # 20000041 <MCU_Version>
    1d98:	cb99                	beqz	a5,1dae <GPIO_Init+0x8a>
    1d9a:	fc842783          	lw	a5,-56(s0)
    1d9e:	239e                	lhu	a5,0(a5)
    1da0:	83b5                	srli	a5,a5,0xd
    1da2:	01079713          	slli	a4,a5,0x10
    1da6:	8341                	srli	a4,a4,0x10
    1da8:	fc842783          	lw	a5,-56(s0)
    1dac:	a39a                	sh	a4,0(a5)
    1dae:	fc842783          	lw	a5,-56(s0)
    1db2:	239e                	lhu	a5,0(a5)
    1db4:	0ff7f793          	andi	a5,a5,255
    1db8:	cfe9                	beqz	a5,1e92 <GPIO_Init+0x16e>
    1dba:	fcc42783          	lw	a5,-52(s0)
    1dbe:	439c                	lw	a5,0(a5)
    1dc0:	fef42223          	sw	a5,-28(s0)
    1dc4:	fe042423          	sw	zero,-24(s0)
    1dc8:	a85d                	j	1e7e <GPIO_Init+0x15a>
    1dca:	fe842783          	lw	a5,-24(s0)
    1dce:	4705                	li	a4,1
    1dd0:	00f717b3          	sll	a5,a4,a5
    1dd4:	fcf42e23          	sw	a5,-36(s0)
    1dd8:	fc842783          	lw	a5,-56(s0)
    1ddc:	239e                	lhu	a5,0(a5)
    1dde:	873e                	mv	a4,a5
    1de0:	fdc42783          	lw	a5,-36(s0)
    1de4:	8ff9                	and	a5,a5,a4
    1de6:	fef42023          	sw	a5,-32(s0)
    1dea:	fe042703          	lw	a4,-32(s0)
    1dee:	fdc42783          	lw	a5,-36(s0)
    1df2:	08f71163          	bne	a4,a5,1e74 <GPIO_Init+0x150>
    1df6:	fe842783          	lw	a5,-24(s0)
    1dfa:	078a                	slli	a5,a5,0x2
    1dfc:	fcf42e23          	sw	a5,-36(s0)
    1e00:	fdc42783          	lw	a5,-36(s0)
    1e04:	473d                	li	a4,15
    1e06:	00f717b3          	sll	a5,a4,a5
    1e0a:	fcf42c23          	sw	a5,-40(s0)
    1e0e:	fd842783          	lw	a5,-40(s0)
    1e12:	fff7c793          	not	a5,a5
    1e16:	fe442703          	lw	a4,-28(s0)
    1e1a:	8ff9                	and	a5,a5,a4
    1e1c:	fef42223          	sw	a5,-28(s0)
    1e20:	fdc42783          	lw	a5,-36(s0)
    1e24:	fec42703          	lw	a4,-20(s0)
    1e28:	00f717b3          	sll	a5,a4,a5
    1e2c:	fe442703          	lw	a4,-28(s0)
    1e30:	8fd9                	or	a5,a5,a4
    1e32:	fef42223          	sw	a5,-28(s0)
    1e36:	fc842783          	lw	a5,-56(s0)
    1e3a:	4798                	lw	a4,8(a5)
    1e3c:	02800793          	li	a5,40
    1e40:	00f71b63          	bne	a4,a5,1e56 <GPIO_Init+0x132>
    1e44:	fe842783          	lw	a5,-24(s0)
    1e48:	4705                	li	a4,1
    1e4a:	00f71733          	sll	a4,a4,a5
    1e4e:	fcc42783          	lw	a5,-52(s0)
    1e52:	cbd8                	sw	a4,20(a5)
    1e54:	a005                	j	1e74 <GPIO_Init+0x150>
    1e56:	fc842783          	lw	a5,-56(s0)
    1e5a:	4798                	lw	a4,8(a5)
    1e5c:	04800793          	li	a5,72
    1e60:	00f71a63          	bne	a4,a5,1e74 <GPIO_Init+0x150>
    1e64:	fe842783          	lw	a5,-24(s0)
    1e68:	4705                	li	a4,1
    1e6a:	00f71733          	sll	a4,a4,a5
    1e6e:	fcc42783          	lw	a5,-52(s0)
    1e72:	cb98                	sw	a4,16(a5)
    1e74:	fe842783          	lw	a5,-24(s0)
    1e78:	0785                	addi	a5,a5,1
    1e7a:	fef42423          	sw	a5,-24(s0)
    1e7e:	fe842703          	lw	a4,-24(s0)
    1e82:	479d                	li	a5,7
    1e84:	f4e7f3e3          	bgeu	a5,a4,1dca <GPIO_Init+0xa6>
    1e88:	fcc42783          	lw	a5,-52(s0)
    1e8c:	fe442703          	lw	a4,-28(s0)
    1e90:	c398                	sw	a4,0(a5)
    1e92:	fc842783          	lw	a5,-56(s0)
    1e96:	239a                	lhu	a4,0(a5)
    1e98:	0ff00793          	li	a5,255
    1e9c:	0ee7f063          	bgeu	a5,a4,1f7c <GPIO_Init+0x258>
    1ea0:	fcc42783          	lw	a5,-52(s0)
    1ea4:	43dc                	lw	a5,4(a5)
    1ea6:	fef42223          	sw	a5,-28(s0)
    1eaa:	fe042423          	sw	zero,-24(s0)
    1eae:	a86d                	j	1f68 <GPIO_Init+0x244>
    1eb0:	fe842783          	lw	a5,-24(s0)
    1eb4:	07a1                	addi	a5,a5,8
    1eb6:	4705                	li	a4,1
    1eb8:	00f717b3          	sll	a5,a4,a5
    1ebc:	fcf42e23          	sw	a5,-36(s0)
    1ec0:	fc842783          	lw	a5,-56(s0)
    1ec4:	239e                	lhu	a5,0(a5)
    1ec6:	873e                	mv	a4,a5
    1ec8:	fdc42783          	lw	a5,-36(s0)
    1ecc:	8ff9                	and	a5,a5,a4
    1ece:	fef42023          	sw	a5,-32(s0)
    1ed2:	fe042703          	lw	a4,-32(s0)
    1ed6:	fdc42783          	lw	a5,-36(s0)
    1eda:	08f71263          	bne	a4,a5,1f5e <GPIO_Init+0x23a>
    1ede:	fe842783          	lw	a5,-24(s0)
    1ee2:	078a                	slli	a5,a5,0x2
    1ee4:	fcf42e23          	sw	a5,-36(s0)
    1ee8:	fdc42783          	lw	a5,-36(s0)
    1eec:	473d                	li	a4,15
    1eee:	00f717b3          	sll	a5,a4,a5
    1ef2:	fcf42c23          	sw	a5,-40(s0)
    1ef6:	fd842783          	lw	a5,-40(s0)
    1efa:	fff7c793          	not	a5,a5
    1efe:	fe442703          	lw	a4,-28(s0)
    1f02:	8ff9                	and	a5,a5,a4
    1f04:	fef42223          	sw	a5,-28(s0)
    1f08:	fdc42783          	lw	a5,-36(s0)
    1f0c:	fec42703          	lw	a4,-20(s0)
    1f10:	00f717b3          	sll	a5,a4,a5
    1f14:	fe442703          	lw	a4,-28(s0)
    1f18:	8fd9                	or	a5,a5,a4
    1f1a:	fef42223          	sw	a5,-28(s0)
    1f1e:	fc842783          	lw	a5,-56(s0)
    1f22:	4798                	lw	a4,8(a5)
    1f24:	02800793          	li	a5,40
    1f28:	00f71b63          	bne	a4,a5,1f3e <GPIO_Init+0x21a>
    1f2c:	fe842783          	lw	a5,-24(s0)
    1f30:	07a1                	addi	a5,a5,8
    1f32:	4705                	li	a4,1
    1f34:	00f71733          	sll	a4,a4,a5
    1f38:	fcc42783          	lw	a5,-52(s0)
    1f3c:	cbd8                	sw	a4,20(a5)
    1f3e:	fc842783          	lw	a5,-56(s0)
    1f42:	4798                	lw	a4,8(a5)
    1f44:	04800793          	li	a5,72
    1f48:	00f71b63          	bne	a4,a5,1f5e <GPIO_Init+0x23a>
    1f4c:	fe842783          	lw	a5,-24(s0)
    1f50:	07a1                	addi	a5,a5,8
    1f52:	4705                	li	a4,1
    1f54:	00f71733          	sll	a4,a4,a5
    1f58:	fcc42783          	lw	a5,-52(s0)
    1f5c:	cb98                	sw	a4,16(a5)
    1f5e:	fe842783          	lw	a5,-24(s0)
    1f62:	0785                	addi	a5,a5,1
    1f64:	fef42423          	sw	a5,-24(s0)
    1f68:	fe842703          	lw	a4,-24(s0)
    1f6c:	479d                	li	a5,7
    1f6e:	f4e7f1e3          	bgeu	a5,a4,1eb0 <GPIO_Init+0x18c>
    1f72:	fcc42783          	lw	a5,-52(s0)
    1f76:	fe442703          	lw	a4,-28(s0)
    1f7a:	c3d8                	sw	a4,4(a5)
    1f7c:	0001                	nop
    1f7e:	5472                	lw	s0,60(sp)
    1f80:	6121                	addi	sp,sp,64
    1f82:	8082                	ret

00001f84 <GPIO_SetBits>:
    1f84:	1101                	addi	sp,sp,-32
    1f86:	ce22                	sw	s0,28(sp)
    1f88:	1000                	addi	s0,sp,32
    1f8a:	fea42623          	sw	a0,-20(s0)
    1f8e:	87ae                	mv	a5,a1
    1f90:	fef41523          	sh	a5,-22(s0)
    1f94:	fec42703          	lw	a4,-20(s0)
    1f98:	400117b7          	lui	a5,0x40011
    1f9c:	00f71a63          	bne	a4,a5,1fb0 <GPIO_SetBits+0x2c>
    1fa0:	8311c783          	lbu	a5,-1999(gp) # 20000041 <MCU_Version>
    1fa4:	c791                	beqz	a5,1fb0 <GPIO_SetBits+0x2c>
    1fa6:	fea45783          	lhu	a5,-22(s0)
    1faa:	83b5                	srli	a5,a5,0xd
    1fac:	fef41523          	sh	a5,-22(s0)
    1fb0:	fea45703          	lhu	a4,-22(s0)
    1fb4:	fec42783          	lw	a5,-20(s0)
    1fb8:	cb98                	sw	a4,16(a5)
    1fba:	0001                	nop
    1fbc:	4472                	lw	s0,28(sp)
    1fbe:	6105                	addi	sp,sp,32
    1fc0:	8082                	ret

00001fc2 <GPIO_WriteBit>:
    1fc2:	1101                	addi	sp,sp,-32
    1fc4:	ce22                	sw	s0,28(sp)
    1fc6:	1000                	addi	s0,sp,32
    1fc8:	fea42623          	sw	a0,-20(s0)
    1fcc:	87ae                	mv	a5,a1
    1fce:	fec42223          	sw	a2,-28(s0)
    1fd2:	fef41523          	sh	a5,-22(s0)
    1fd6:	fec42703          	lw	a4,-20(s0)
    1fda:	400117b7          	lui	a5,0x40011
    1fde:	00f71a63          	bne	a4,a5,1ff2 <GPIO_WriteBit+0x30>
    1fe2:	8311c783          	lbu	a5,-1999(gp) # 20000041 <MCU_Version>
    1fe6:	c791                	beqz	a5,1ff2 <GPIO_WriteBit+0x30>
    1fe8:	fea45783          	lhu	a5,-22(s0)
    1fec:	83b5                	srli	a5,a5,0xd
    1fee:	fef41523          	sh	a5,-22(s0)
    1ff2:	fe442783          	lw	a5,-28(s0)
    1ff6:	c799                	beqz	a5,2004 <GPIO_WriteBit+0x42>
    1ff8:	fea45703          	lhu	a4,-22(s0)
    1ffc:	fec42783          	lw	a5,-20(s0)
    2000:	cb98                	sw	a4,16(a5)
    2002:	a031                	j	200e <GPIO_WriteBit+0x4c>
    2004:	fea45703          	lhu	a4,-22(s0)
    2008:	fec42783          	lw	a5,-20(s0)
    200c:	cbd8                	sw	a4,20(a5)
    200e:	0001                	nop
    2010:	4472                	lw	s0,28(sp)
    2012:	6105                	addi	sp,sp,32
    2014:	8082                	ret

00002016 <RCC_USBCLKConfig>:
    2016:	1101                	addi	sp,sp,-32
    2018:	ce22                	sw	s0,28(sp)
    201a:	1000                	addi	s0,sp,32
    201c:	fea42623          	sw	a0,-20(s0)
    2020:	400217b7          	lui	a5,0x40021
    2024:	43d4                	lw	a3,4(a5)
    2026:	400217b7          	lui	a5,0x40021
    202a:	ff400737          	lui	a4,0xff400
    202e:	177d                	addi	a4,a4,-1
    2030:	8f75                	and	a4,a4,a3
    2032:	c3d8                	sw	a4,4(a5)
    2034:	400217b7          	lui	a5,0x40021
    2038:	43d4                	lw	a3,4(a5)
    203a:	fec42783          	lw	a5,-20(s0)
    203e:	01679713          	slli	a4,a5,0x16
    2042:	400217b7          	lui	a5,0x40021
    2046:	8f55                	or	a4,a4,a3
    2048:	c3d8                	sw	a4,4(a5)
    204a:	0001                	nop
    204c:	4472                	lw	s0,28(sp)
    204e:	6105                	addi	sp,sp,32
    2050:	8082                	ret

00002052 <RCC_GetClocksFreq>:
    2052:	7179                	addi	sp,sp,-48
    2054:	d622                	sw	s0,44(sp)
    2056:	1800                	addi	s0,sp,48
    2058:	fca42e23          	sw	a0,-36(s0)
    205c:	fe042423          	sw	zero,-24(s0)
    2060:	fe042623          	sw	zero,-20(s0)
    2064:	fe042223          	sw	zero,-28(s0)
    2068:	fe042023          	sw	zero,-32(s0)
    206c:	400217b7          	lui	a5,0x40021
    2070:	43dc                	lw	a5,4(a5)
    2072:	8bb1                	andi	a5,a5,12
    2074:	fef42423          	sw	a5,-24(s0)
    2078:	fe842703          	lw	a4,-24(s0)
    207c:	4791                	li	a5,4
    207e:	02f70263          	beq	a4,a5,20a2 <RCC_GetClocksFreq+0x50>
    2082:	fe842703          	lw	a4,-24(s0)
    2086:	47a1                	li	a5,8
    2088:	02f70563          	beq	a4,a5,20b2 <RCC_GetClocksFreq+0x60>
    208c:	fe842783          	lw	a5,-24(s0)
    2090:	eff9                	bnez	a5,216e <RCC_GetClocksFreq+0x11c>
    2092:	fdc42783          	lw	a5,-36(s0)
    2096:	007a1737          	lui	a4,0x7a1
    209a:	20070713          	addi	a4,a4,512 # 7a1200 <_data_lma+0x79e90c>
    209e:	c398                	sw	a4,0(a5)
    20a0:	a8f9                	j	217e <RCC_GetClocksFreq+0x12c>
    20a2:	fdc42783          	lw	a5,-36(s0)
    20a6:	007a1737          	lui	a4,0x7a1
    20aa:	20070713          	addi	a4,a4,512 # 7a1200 <_data_lma+0x79e90c>
    20ae:	c398                	sw	a4,0(a5)
    20b0:	a0f9                	j	217e <RCC_GetClocksFreq+0x12c>
    20b2:	400217b7          	lui	a5,0x40021
    20b6:	43d8                	lw	a4,4(a5)
    20b8:	003c07b7          	lui	a5,0x3c0
    20bc:	8ff9                	and	a5,a5,a4
    20be:	fef42623          	sw	a5,-20(s0)
    20c2:	400217b7          	lui	a5,0x40021
    20c6:	43d8                	lw	a4,4(a5)
    20c8:	67c1                	lui	a5,0x10
    20ca:	8ff9                	and	a5,a5,a4
    20cc:	fef42223          	sw	a5,-28(s0)
    20d0:	fec42783          	lw	a5,-20(s0)
    20d4:	83c9                	srli	a5,a5,0x12
    20d6:	0789                	addi	a5,a5,2
    20d8:	fef42623          	sw	a5,-20(s0)
    20dc:	fec42703          	lw	a4,-20(s0)
    20e0:	47c5                	li	a5,17
    20e2:	00f71563          	bne	a4,a5,20ec <RCC_GetClocksFreq+0x9a>
    20e6:	47c9                	li	a5,18
    20e8:	fef42623          	sw	a5,-20(s0)
    20ec:	fe442783          	lw	a5,-28(s0)
    20f0:	e3a1                	bnez	a5,2130 <RCC_GetClocksFreq+0xde>
    20f2:	400247b7          	lui	a5,0x40024
    20f6:	80078793          	addi	a5,a5,-2048 # 40023800 <_eusrstack+0x2001e800>
    20fa:	439c                	lw	a5,0(a5)
    20fc:	8bc1                	andi	a5,a5,16
    20fe:	cf89                	beqz	a5,2118 <RCC_GetClocksFreq+0xc6>
    2100:	fec42703          	lw	a4,-20(s0)
    2104:	007a17b7          	lui	a5,0x7a1
    2108:	20078793          	addi	a5,a5,512 # 7a1200 <_data_lma+0x79e90c>
    210c:	02f70733          	mul	a4,a4,a5
    2110:	fdc42783          	lw	a5,-36(s0)
    2114:	c398                	sw	a4,0(a5)
    2116:	a0a5                	j	217e <RCC_GetClocksFreq+0x12c>
    2118:	fec42703          	lw	a4,-20(s0)
    211c:	003d17b7          	lui	a5,0x3d1
    2120:	90078793          	addi	a5,a5,-1792 # 3d0900 <_data_lma+0x3ce00c>
    2124:	02f70733          	mul	a4,a4,a5
    2128:	fdc42783          	lw	a5,-36(s0)
    212c:	c398                	sw	a4,0(a5)
    212e:	a881                	j	217e <RCC_GetClocksFreq+0x12c>
    2130:	400217b7          	lui	a5,0x40021
    2134:	43d8                	lw	a4,4(a5)
    2136:	000207b7          	lui	a5,0x20
    213a:	8ff9                	and	a5,a5,a4
    213c:	cf89                	beqz	a5,2156 <RCC_GetClocksFreq+0x104>
    213e:	fec42703          	lw	a4,-20(s0)
    2142:	003d17b7          	lui	a5,0x3d1
    2146:	90078793          	addi	a5,a5,-1792 # 3d0900 <_data_lma+0x3ce00c>
    214a:	02f70733          	mul	a4,a4,a5
    214e:	fdc42783          	lw	a5,-36(s0)
    2152:	c398                	sw	a4,0(a5)
    2154:	a02d                	j	217e <RCC_GetClocksFreq+0x12c>
    2156:	fec42703          	lw	a4,-20(s0)
    215a:	007a17b7          	lui	a5,0x7a1
    215e:	20078793          	addi	a5,a5,512 # 7a1200 <_data_lma+0x79e90c>
    2162:	02f70733          	mul	a4,a4,a5
    2166:	fdc42783          	lw	a5,-36(s0)
    216a:	c398                	sw	a4,0(a5)
    216c:	a809                	j	217e <RCC_GetClocksFreq+0x12c>
    216e:	fdc42783          	lw	a5,-36(s0)
    2172:	007a1737          	lui	a4,0x7a1
    2176:	20070713          	addi	a4,a4,512 # 7a1200 <_data_lma+0x79e90c>
    217a:	c398                	sw	a4,0(a5)
    217c:	0001                	nop
    217e:	400217b7          	lui	a5,0x40021
    2182:	43dc                	lw	a5,4(a5)
    2184:	0f07f793          	andi	a5,a5,240
    2188:	fef42423          	sw	a5,-24(s0)
    218c:	fe842783          	lw	a5,-24(s0)
    2190:	8391                	srli	a5,a5,0x4
    2192:	fef42423          	sw	a5,-24(s0)
    2196:	200007b7          	lui	a5,0x20000
    219a:	00078713          	mv	a4,a5
    219e:	fe842783          	lw	a5,-24(s0)
    21a2:	97ba                	add	a5,a5,a4
    21a4:	239c                	lbu	a5,0(a5)
    21a6:	0ff7f793          	andi	a5,a5,255
    21aa:	fef42023          	sw	a5,-32(s0)
    21ae:	fdc42783          	lw	a5,-36(s0)
    21b2:	4398                	lw	a4,0(a5)
    21b4:	fe042783          	lw	a5,-32(s0)
    21b8:	00f75733          	srl	a4,a4,a5
    21bc:	fdc42783          	lw	a5,-36(s0)
    21c0:	c3d8                	sw	a4,4(a5)
    21c2:	400217b7          	lui	a5,0x40021
    21c6:	43dc                	lw	a5,4(a5)
    21c8:	7007f793          	andi	a5,a5,1792
    21cc:	fef42423          	sw	a5,-24(s0)
    21d0:	fe842783          	lw	a5,-24(s0)
    21d4:	83a1                	srli	a5,a5,0x8
    21d6:	fef42423          	sw	a5,-24(s0)
    21da:	200007b7          	lui	a5,0x20000
    21de:	00078713          	mv	a4,a5
    21e2:	fe842783          	lw	a5,-24(s0)
    21e6:	97ba                	add	a5,a5,a4
    21e8:	239c                	lbu	a5,0(a5)
    21ea:	0ff7f793          	andi	a5,a5,255
    21ee:	fef42023          	sw	a5,-32(s0)
    21f2:	fdc42783          	lw	a5,-36(s0)
    21f6:	43d8                	lw	a4,4(a5)
    21f8:	fe042783          	lw	a5,-32(s0)
    21fc:	00f75733          	srl	a4,a4,a5
    2200:	fdc42783          	lw	a5,-36(s0)
    2204:	c798                	sw	a4,8(a5)
    2206:	400217b7          	lui	a5,0x40021
    220a:	43d8                	lw	a4,4(a5)
    220c:	6791                	lui	a5,0x4
    220e:	80078793          	addi	a5,a5,-2048 # 3800 <_data_lma+0xf0c>
    2212:	8ff9                	and	a5,a5,a4
    2214:	fef42423          	sw	a5,-24(s0)
    2218:	fe842783          	lw	a5,-24(s0)
    221c:	83ad                	srli	a5,a5,0xb
    221e:	fef42423          	sw	a5,-24(s0)
    2222:	200007b7          	lui	a5,0x20000
    2226:	00078713          	mv	a4,a5
    222a:	fe842783          	lw	a5,-24(s0)
    222e:	97ba                	add	a5,a5,a4
    2230:	239c                	lbu	a5,0(a5)
    2232:	0ff7f793          	andi	a5,a5,255
    2236:	fef42023          	sw	a5,-32(s0)
    223a:	fdc42783          	lw	a5,-36(s0)
    223e:	43d8                	lw	a4,4(a5)
    2240:	fe042783          	lw	a5,-32(s0)
    2244:	00f75733          	srl	a4,a4,a5
    2248:	fdc42783          	lw	a5,-36(s0)
    224c:	c7d8                	sw	a4,12(a5)
    224e:	400217b7          	lui	a5,0x40021
    2252:	43d8                	lw	a4,4(a5)
    2254:	67b1                	lui	a5,0xc
    2256:	8ff9                	and	a5,a5,a4
    2258:	fef42423          	sw	a5,-24(s0)
    225c:	fe842783          	lw	a5,-24(s0)
    2260:	83b9                	srli	a5,a5,0xe
    2262:	fef42423          	sw	a5,-24(s0)
    2266:	200007b7          	lui	a5,0x20000
    226a:	01478713          	addi	a4,a5,20 # 20000014 <ADCPrescTable>
    226e:	fe842783          	lw	a5,-24(s0)
    2272:	97ba                	add	a5,a5,a4
    2274:	239c                	lbu	a5,0(a5)
    2276:	0ff7f793          	andi	a5,a5,255
    227a:	fef42023          	sw	a5,-32(s0)
    227e:	fdc42783          	lw	a5,-36(s0)
    2282:	47d8                	lw	a4,12(a5)
    2284:	fe042783          	lw	a5,-32(s0)
    2288:	02f75733          	divu	a4,a4,a5
    228c:	fdc42783          	lw	a5,-36(s0)
    2290:	cb98                	sw	a4,16(a5)
    2292:	0001                	nop
    2294:	5432                	lw	s0,44(sp)
    2296:	6145                	addi	sp,sp,48
    2298:	8082                	ret

0000229a <RCC_AHBPeriphClockCmd>:
    229a:	1101                	addi	sp,sp,-32
    229c:	ce22                	sw	s0,28(sp)
    229e:	1000                	addi	s0,sp,32
    22a0:	fea42623          	sw	a0,-20(s0)
    22a4:	feb42423          	sw	a1,-24(s0)
    22a8:	fe842783          	lw	a5,-24(s0)
    22ac:	cb99                	beqz	a5,22c2 <RCC_AHBPeriphClockCmd+0x28>
    22ae:	400217b7          	lui	a5,0x40021
    22b2:	4bd4                	lw	a3,20(a5)
    22b4:	400217b7          	lui	a5,0x40021
    22b8:	fec42703          	lw	a4,-20(s0)
    22bc:	8f55                	or	a4,a4,a3
    22be:	cbd8                	sw	a4,20(a5)
    22c0:	a821                	j	22d8 <RCC_AHBPeriphClockCmd+0x3e>
    22c2:	400217b7          	lui	a5,0x40021
    22c6:	4bd4                	lw	a3,20(a5)
    22c8:	fec42783          	lw	a5,-20(s0)
    22cc:	fff7c713          	not	a4,a5
    22d0:	400217b7          	lui	a5,0x40021
    22d4:	8f75                	and	a4,a4,a3
    22d6:	cbd8                	sw	a4,20(a5)
    22d8:	0001                	nop
    22da:	4472                	lw	s0,28(sp)
    22dc:	6105                	addi	sp,sp,32
    22de:	8082                	ret

000022e0 <RCC_APB2PeriphClockCmd>:
    22e0:	1101                	addi	sp,sp,-32
    22e2:	ce22                	sw	s0,28(sp)
    22e4:	1000                	addi	s0,sp,32
    22e6:	fea42623          	sw	a0,-20(s0)
    22ea:	feb42423          	sw	a1,-24(s0)
    22ee:	fe842783          	lw	a5,-24(s0)
    22f2:	cb99                	beqz	a5,2308 <RCC_APB2PeriphClockCmd+0x28>
    22f4:	400217b7          	lui	a5,0x40021
    22f8:	4f94                	lw	a3,24(a5)
    22fa:	400217b7          	lui	a5,0x40021
    22fe:	fec42703          	lw	a4,-20(s0)
    2302:	8f55                	or	a4,a4,a3
    2304:	cf98                	sw	a4,24(a5)
    2306:	a821                	j	231e <RCC_APB2PeriphClockCmd+0x3e>
    2308:	400217b7          	lui	a5,0x40021
    230c:	4f94                	lw	a3,24(a5)
    230e:	fec42783          	lw	a5,-20(s0)
    2312:	fff7c713          	not	a4,a5
    2316:	400217b7          	lui	a5,0x40021
    231a:	8f75                	and	a4,a4,a3
    231c:	cf98                	sw	a4,24(a5)
    231e:	0001                	nop
    2320:	4472                	lw	s0,28(sp)
    2322:	6105                	addi	sp,sp,32
    2324:	8082                	ret

00002326 <RCC_APB1PeriphClockCmd>:
    2326:	1101                	addi	sp,sp,-32
    2328:	ce22                	sw	s0,28(sp)
    232a:	1000                	addi	s0,sp,32
    232c:	fea42623          	sw	a0,-20(s0)
    2330:	feb42423          	sw	a1,-24(s0)
    2334:	fe842783          	lw	a5,-24(s0)
    2338:	cb99                	beqz	a5,234e <RCC_APB1PeriphClockCmd+0x28>
    233a:	400217b7          	lui	a5,0x40021
    233e:	4fd4                	lw	a3,28(a5)
    2340:	400217b7          	lui	a5,0x40021
    2344:	fec42703          	lw	a4,-20(s0)
    2348:	8f55                	or	a4,a4,a3
    234a:	cfd8                	sw	a4,28(a5)
    234c:	a821                	j	2364 <RCC_APB1PeriphClockCmd+0x3e>
    234e:	400217b7          	lui	a5,0x40021
    2352:	4fd4                	lw	a3,28(a5)
    2354:	fec42783          	lw	a5,-20(s0)
    2358:	fff7c713          	not	a4,a5
    235c:	400217b7          	lui	a5,0x40021
    2360:	8f75                	and	a4,a4,a3
    2362:	cfd8                	sw	a4,28(a5)
    2364:	0001                	nop
    2366:	4472                	lw	s0,28(sp)
    2368:	6105                	addi	sp,sp,32
    236a:	8082                	ret

0000236c <USART_Init>:
    236c:	715d                	addi	sp,sp,-80
    236e:	c686                	sw	ra,76(sp)
    2370:	c4a2                	sw	s0,72(sp)
    2372:	0880                	addi	s0,sp,80
    2374:	faa42e23          	sw	a0,-68(s0)
    2378:	fab42c23          	sw	a1,-72(s0)
    237c:	fe042423          	sw	zero,-24(s0)
    2380:	fe042623          	sw	zero,-20(s0)
    2384:	fe042223          	sw	zero,-28(s0)
    2388:	fe042023          	sw	zero,-32(s0)
    238c:	fc042e23          	sw	zero,-36(s0)
    2390:	fbc42783          	lw	a5,-68(s0)
    2394:	fcf42e23          	sw	a5,-36(s0)
    2398:	fbc42783          	lw	a5,-68(s0)
    239c:	2b9e                	lhu	a5,16(a5)
    239e:	07c2                	slli	a5,a5,0x10
    23a0:	83c1                	srli	a5,a5,0x10
    23a2:	fef42423          	sw	a5,-24(s0)
    23a6:	fe842703          	lw	a4,-24(s0)
    23aa:	67b5                	lui	a5,0xd
    23ac:	17fd                	addi	a5,a5,-1
    23ae:	8ff9                	and	a5,a5,a4
    23b0:	fef42423          	sw	a5,-24(s0)
    23b4:	fb842783          	lw	a5,-72(s0)
    23b8:	23fe                	lhu	a5,6(a5)
    23ba:	873e                	mv	a4,a5
    23bc:	fe842783          	lw	a5,-24(s0)
    23c0:	8fd9                	or	a5,a5,a4
    23c2:	fef42423          	sw	a5,-24(s0)
    23c6:	fe842783          	lw	a5,-24(s0)
    23ca:	01079713          	slli	a4,a5,0x10
    23ce:	8341                	srli	a4,a4,0x10
    23d0:	fbc42783          	lw	a5,-68(s0)
    23d4:	ab9a                	sh	a4,16(a5)
    23d6:	fbc42783          	lw	a5,-68(s0)
    23da:	27de                	lhu	a5,12(a5)
    23dc:	07c2                	slli	a5,a5,0x10
    23de:	83c1                	srli	a5,a5,0x10
    23e0:	fef42423          	sw	a5,-24(s0)
    23e4:	fe842703          	lw	a4,-24(s0)
    23e8:	67bd                	lui	a5,0xf
    23ea:	9f378793          	addi	a5,a5,-1549 # e9f3 <_data_lma+0xc0ff>
    23ee:	8ff9                	and	a5,a5,a4
    23f0:	fef42423          	sw	a5,-24(s0)
    23f4:	fb842783          	lw	a5,-72(s0)
    23f8:	23da                	lhu	a4,4(a5)
    23fa:	fb842783          	lw	a5,-72(s0)
    23fe:	279e                	lhu	a5,8(a5)
    2400:	8fd9                	or	a5,a5,a4
    2402:	01079713          	slli	a4,a5,0x10
    2406:	8341                	srli	a4,a4,0x10
    2408:	fb842783          	lw	a5,-72(s0)
    240c:	27be                	lhu	a5,10(a5)
    240e:	8fd9                	or	a5,a5,a4
    2410:	07c2                	slli	a5,a5,0x10
    2412:	83c1                	srli	a5,a5,0x10
    2414:	873e                	mv	a4,a5
    2416:	fe842783          	lw	a5,-24(s0)
    241a:	8fd9                	or	a5,a5,a4
    241c:	fef42423          	sw	a5,-24(s0)
    2420:	fe842783          	lw	a5,-24(s0)
    2424:	01079713          	slli	a4,a5,0x10
    2428:	8341                	srli	a4,a4,0x10
    242a:	fbc42783          	lw	a5,-68(s0)
    242e:	a7da                	sh	a4,12(a5)
    2430:	fbc42783          	lw	a5,-68(s0)
    2434:	2bde                	lhu	a5,20(a5)
    2436:	07c2                	slli	a5,a5,0x10
    2438:	83c1                	srli	a5,a5,0x10
    243a:	fef42423          	sw	a5,-24(s0)
    243e:	fe842703          	lw	a4,-24(s0)
    2442:	67c1                	lui	a5,0x10
    2444:	cff78793          	addi	a5,a5,-769 # fcff <_data_lma+0xd40b>
    2448:	8ff9                	and	a5,a5,a4
    244a:	fef42423          	sw	a5,-24(s0)
    244e:	fb842783          	lw	a5,-72(s0)
    2452:	27de                	lhu	a5,12(a5)
    2454:	873e                	mv	a4,a5
    2456:	fe842783          	lw	a5,-24(s0)
    245a:	8fd9                	or	a5,a5,a4
    245c:	fef42423          	sw	a5,-24(s0)
    2460:	fe842783          	lw	a5,-24(s0)
    2464:	01079713          	slli	a4,a5,0x10
    2468:	8341                	srli	a4,a4,0x10
    246a:	fbc42783          	lw	a5,-68(s0)
    246e:	abda                	sh	a4,20(a5)
    2470:	fc840793          	addi	a5,s0,-56
    2474:	853e                	mv	a0,a5
    2476:	3ef1                	jal	2052 <RCC_GetClocksFreq>
    2478:	fdc42703          	lw	a4,-36(s0)
    247c:	400147b7          	lui	a5,0x40014
    2480:	80078793          	addi	a5,a5,-2048 # 40013800 <_eusrstack+0x2000e800>
    2484:	00f71763          	bne	a4,a5,2492 <USART_Init+0x126>
    2488:	fd442783          	lw	a5,-44(s0)
    248c:	fef42623          	sw	a5,-20(s0)
    2490:	a029                	j	249a <USART_Init+0x12e>
    2492:	fd042783          	lw	a5,-48(s0)
    2496:	fef42623          	sw	a5,-20(s0)
    249a:	fec42703          	lw	a4,-20(s0)
    249e:	87ba                	mv	a5,a4
    24a0:	0786                	slli	a5,a5,0x1
    24a2:	97ba                	add	a5,a5,a4
    24a4:	078e                	slli	a5,a5,0x3
    24a6:	973e                	add	a4,a4,a5
    24a8:	fb842783          	lw	a5,-72(s0)
    24ac:	439c                	lw	a5,0(a5)
    24ae:	078a                	slli	a5,a5,0x2
    24b0:	02f757b3          	divu	a5,a4,a5
    24b4:	fef42223          	sw	a5,-28(s0)
    24b8:	fe442703          	lw	a4,-28(s0)
    24bc:	06400793          	li	a5,100
    24c0:	02f757b3          	divu	a5,a4,a5
    24c4:	0792                	slli	a5,a5,0x4
    24c6:	fef42423          	sw	a5,-24(s0)
    24ca:	fe842783          	lw	a5,-24(s0)
    24ce:	0047d713          	srli	a4,a5,0x4
    24d2:	06400793          	li	a5,100
    24d6:	02f707b3          	mul	a5,a4,a5
    24da:	fe442703          	lw	a4,-28(s0)
    24de:	40f707b3          	sub	a5,a4,a5
    24e2:	fef42023          	sw	a5,-32(s0)
    24e6:	fe042783          	lw	a5,-32(s0)
    24ea:	0792                	slli	a5,a5,0x4
    24ec:	03278713          	addi	a4,a5,50
    24f0:	06400793          	li	a5,100
    24f4:	02f757b3          	divu	a5,a4,a5
    24f8:	8bbd                	andi	a5,a5,15
    24fa:	fe842703          	lw	a4,-24(s0)
    24fe:	8fd9                	or	a5,a5,a4
    2500:	fef42423          	sw	a5,-24(s0)
    2504:	fe842783          	lw	a5,-24(s0)
    2508:	01079713          	slli	a4,a5,0x10
    250c:	8341                	srli	a4,a4,0x10
    250e:	fbc42783          	lw	a5,-68(s0)
    2512:	a79a                	sh	a4,8(a5)
    2514:	0001                	nop
    2516:	40b6                	lw	ra,76(sp)
    2518:	4426                	lw	s0,72(sp)
    251a:	6161                	addi	sp,sp,80
    251c:	8082                	ret

0000251e <USART_Cmd>:
    251e:	1101                	addi	sp,sp,-32
    2520:	ce22                	sw	s0,28(sp)
    2522:	1000                	addi	s0,sp,32
    2524:	fea42623          	sw	a0,-20(s0)
    2528:	feb42423          	sw	a1,-24(s0)
    252c:	fe842783          	lw	a5,-24(s0)
    2530:	c385                	beqz	a5,2550 <USART_Cmd+0x32>
    2532:	fec42783          	lw	a5,-20(s0)
    2536:	27de                	lhu	a5,12(a5)
    2538:	01079713          	slli	a4,a5,0x10
    253c:	8341                	srli	a4,a4,0x10
    253e:	6789                	lui	a5,0x2
    2540:	8fd9                	or	a5,a5,a4
    2542:	01079713          	slli	a4,a5,0x10
    2546:	8341                	srli	a4,a4,0x10
    2548:	fec42783          	lw	a5,-20(s0)
    254c:	a7da                	sh	a4,12(a5)
    254e:	a005                	j	256e <USART_Cmd+0x50>
    2550:	fec42783          	lw	a5,-20(s0)
    2554:	27de                	lhu	a5,12(a5)
    2556:	01079713          	slli	a4,a5,0x10
    255a:	8341                	srli	a4,a4,0x10
    255c:	77f9                	lui	a5,0xffffe
    255e:	17fd                	addi	a5,a5,-1
    2560:	8ff9                	and	a5,a5,a4
    2562:	01079713          	slli	a4,a5,0x10
    2566:	8341                	srli	a4,a4,0x10
    2568:	fec42783          	lw	a5,-20(s0)
    256c:	a7da                	sh	a4,12(a5)
    256e:	0001                	nop
    2570:	4472                	lw	s0,28(sp)
    2572:	6105                	addi	sp,sp,32
    2574:	8082                	ret

00002576 <USART_DMACmd>:
    2576:	1101                	addi	sp,sp,-32
    2578:	ce22                	sw	s0,28(sp)
    257a:	1000                	addi	s0,sp,32
    257c:	fea42623          	sw	a0,-20(s0)
    2580:	87ae                	mv	a5,a1
    2582:	fec42223          	sw	a2,-28(s0)
    2586:	fef41523          	sh	a5,-22(s0)
    258a:	fe442783          	lw	a5,-28(s0)
    258e:	c38d                	beqz	a5,25b0 <USART_DMACmd+0x3a>
    2590:	fec42783          	lw	a5,-20(s0)
    2594:	2bde                	lhu	a5,20(a5)
    2596:	01079713          	slli	a4,a5,0x10
    259a:	8341                	srli	a4,a4,0x10
    259c:	fea45783          	lhu	a5,-22(s0)
    25a0:	8fd9                	or	a5,a5,a4
    25a2:	01079713          	slli	a4,a5,0x10
    25a6:	8341                	srli	a4,a4,0x10
    25a8:	fec42783          	lw	a5,-20(s0)
    25ac:	abda                	sh	a4,20(a5)
    25ae:	a025                	j	25d6 <USART_DMACmd+0x60>
    25b0:	fec42783          	lw	a5,-20(s0)
    25b4:	2bde                	lhu	a5,20(a5)
    25b6:	01079713          	slli	a4,a5,0x10
    25ba:	8341                	srli	a4,a4,0x10
    25bc:	fea45783          	lhu	a5,-22(s0)
    25c0:	fff7c793          	not	a5,a5
    25c4:	07c2                	slli	a5,a5,0x10
    25c6:	83c1                	srli	a5,a5,0x10
    25c8:	8ff9                	and	a5,a5,a4
    25ca:	01079713          	slli	a4,a5,0x10
    25ce:	8341                	srli	a4,a4,0x10
    25d0:	fec42783          	lw	a5,-20(s0)
    25d4:	abda                	sh	a4,20(a5)
    25d6:	0001                	nop
    25d8:	4472                	lw	s0,28(sp)
    25da:	6105                	addi	sp,sp,32
    25dc:	8082                	ret

000025de <USART_ClearFlag>:
    25de:	1101                	addi	sp,sp,-32
    25e0:	ce22                	sw	s0,28(sp)
    25e2:	1000                	addi	s0,sp,32
    25e4:	fea42623          	sw	a0,-20(s0)
    25e8:	87ae                	mv	a5,a1
    25ea:	fef41523          	sh	a5,-22(s0)
    25ee:	fea45783          	lhu	a5,-22(s0)
    25f2:	fff7c793          	not	a5,a5
    25f6:	01079713          	slli	a4,a5,0x10
    25fa:	8341                	srli	a4,a4,0x10
    25fc:	fec42783          	lw	a5,-20(s0)
    2600:	a39a                	sh	a4,0(a5)
    2602:	0001                	nop
    2604:	4472                	lw	s0,28(sp)
    2606:	6105                	addi	sp,sp,32
    2608:	8082                	ret

0000260a <Delay_Init>:
    260a:	1141                	addi	sp,sp,-16
    260c:	c622                	sw	s0,12(sp)
    260e:	0800                	addi	s0,sp,16
    2610:	200007b7          	lui	a5,0x20000
    2614:	0107a703          	lw	a4,16(a5) # 20000010 <SystemCoreClock>
    2618:	007a17b7          	lui	a5,0x7a1
    261c:	20078793          	addi	a5,a5,512 # 7a1200 <_data_lma+0x79e90c>
    2620:	02f757b3          	divu	a5,a4,a5
    2624:	0ff7f713          	andi	a4,a5,255
    2628:	82e18923          	sb	a4,-1998(gp) # 20000042 <p_us>
    262c:	8321c783          	lbu	a5,-1998(gp) # 20000042 <p_us>
    2630:	01079713          	slli	a4,a5,0x10
    2634:	8341                	srli	a4,a4,0x10
    2636:	3e800793          	li	a5,1000
    263a:	02f707b3          	mul	a5,a4,a5
    263e:	01079713          	slli	a4,a5,0x10
    2642:	8341                	srli	a4,a4,0x10
    2644:	82e19a23          	sh	a4,-1996(gp) # 20000044 <p_ms>
    2648:	0001                	nop
    264a:	4432                	lw	s0,12(sp)
    264c:	0141                	addi	sp,sp,16
    264e:	8082                	ret

00002650 <Delay_Us>:
    2650:	7179                	addi	sp,sp,-48
    2652:	d622                	sw	s0,44(sp)
    2654:	1800                	addi	s0,sp,48
    2656:	fca42e23          	sw	a0,-36(s0)
    265a:	e000f737          	lui	a4,0xe000f
    265e:	4354                	lw	a3,4(a4)
    2660:	e000f737          	lui	a4,0xe000f
    2664:	9af9                	andi	a3,a3,-2
    2666:	c354                	sw	a3,4(a4)
    2668:	8321c703          	lbu	a4,-1998(gp) # 20000042 <p_us>
    266c:	86ba                	mv	a3,a4
    266e:	fdc42703          	lw	a4,-36(s0)
    2672:	02d70733          	mul	a4,a4,a3
    2676:	fee42623          	sw	a4,-20(s0)
    267a:	e000f737          	lui	a4,0xe000f
    267e:	fec42683          	lw	a3,-20(s0)
    2682:	87b6                	mv	a5,a3
    2684:	4801                	li	a6,0
    2686:	cb1c                	sw	a5,16(a4)
    2688:	01072a23          	sw	a6,20(a4) # e000f014 <_eusrstack+0xc000a014>
    268c:	e000f7b7          	lui	a5,0xe000f
    2690:	4398                	lw	a4,0(a5)
    2692:	e000f7b7          	lui	a5,0xe000f
    2696:	01076713          	ori	a4,a4,16
    269a:	c398                	sw	a4,0(a5)
    269c:	e000f7b7          	lui	a5,0xe000f
    26a0:	4398                	lw	a4,0(a5)
    26a2:	e000f7b7          	lui	a5,0xe000f
    26a6:	02176713          	ori	a4,a4,33
    26aa:	c398                	sw	a4,0(a5)
    26ac:	0001                	nop
    26ae:	e000f7b7          	lui	a5,0xe000f
    26b2:	43dc                	lw	a5,4(a5)
    26b4:	0017f713          	andi	a4,a5,1
    26b8:	4785                	li	a5,1
    26ba:	fef71ae3          	bne	a4,a5,26ae <Delay_Us+0x5e>
    26be:	e000f7b7          	lui	a5,0xe000f
    26c2:	4398                	lw	a4,0(a5)
    26c4:	e000f7b7          	lui	a5,0xe000f
    26c8:	9b79                	andi	a4,a4,-2
    26ca:	c398                	sw	a4,0(a5)
    26cc:	0001                	nop
    26ce:	5432                	lw	s0,44(sp)
    26d0:	6145                	addi	sp,sp,48
    26d2:	8082                	ret

000026d4 <Delay_Ms>:
    26d4:	7179                	addi	sp,sp,-48
    26d6:	d622                	sw	s0,44(sp)
    26d8:	1800                	addi	s0,sp,48
    26da:	fca42e23          	sw	a0,-36(s0)
    26de:	e000f737          	lui	a4,0xe000f
    26e2:	4354                	lw	a3,4(a4)
    26e4:	e000f737          	lui	a4,0xe000f
    26e8:	9af9                	andi	a3,a3,-2
    26ea:	c354                	sw	a3,4(a4)
    26ec:	8341d703          	lhu	a4,-1996(gp) # 20000044 <p_ms>
    26f0:	86ba                	mv	a3,a4
    26f2:	fdc42703          	lw	a4,-36(s0)
    26f6:	02d70733          	mul	a4,a4,a3
    26fa:	fee42623          	sw	a4,-20(s0)
    26fe:	e000f737          	lui	a4,0xe000f
    2702:	fec42683          	lw	a3,-20(s0)
    2706:	87b6                	mv	a5,a3
    2708:	4801                	li	a6,0
    270a:	cb1c                	sw	a5,16(a4)
    270c:	01072a23          	sw	a6,20(a4) # e000f014 <_eusrstack+0xc000a014>
    2710:	e000f7b7          	lui	a5,0xe000f
    2714:	4398                	lw	a4,0(a5)
    2716:	e000f7b7          	lui	a5,0xe000f
    271a:	01076713          	ori	a4,a4,16
    271e:	c398                	sw	a4,0(a5)
    2720:	e000f7b7          	lui	a5,0xe000f
    2724:	4398                	lw	a4,0(a5)
    2726:	e000f7b7          	lui	a5,0xe000f
    272a:	02176713          	ori	a4,a4,33
    272e:	c398                	sw	a4,0(a5)
    2730:	0001                	nop
    2732:	e000f7b7          	lui	a5,0xe000f
    2736:	43dc                	lw	a5,4(a5)
    2738:	0017f713          	andi	a4,a5,1
    273c:	4785                	li	a5,1
    273e:	fef71ae3          	bne	a4,a5,2732 <Delay_Ms+0x5e>
    2742:	e000f7b7          	lui	a5,0xe000f
    2746:	4398                	lw	a4,0(a5)
    2748:	e000f7b7          	lui	a5,0xe000f
    274c:	9b79                	andi	a4,a4,-2
    274e:	c398                	sw	a4,0(a5)
    2750:	0001                	nop
    2752:	5432                	lw	s0,44(sp)
    2754:	6145                	addi	sp,sp,48
    2756:	8082                	ret

00002758 <memcpy>:
    2758:	00a5c7b3          	xor	a5,a1,a0
    275c:	8b8d                	andi	a5,a5,3
    275e:	00c50733          	add	a4,a0,a2
    2762:	e781                	bnez	a5,276a <memcpy+0x12>
    2764:	478d                	li	a5,3
    2766:	00c7ed63          	bltu	a5,a2,2780 <memcpy+0x28>
    276a:	87aa                	mv	a5,a0
    276c:	08e57e63          	bgeu	a0,a4,2808 <memcpy+0xb0>
    2770:	2194                	lbu	a3,0(a1)
    2772:	0785                	addi	a5,a5,1
    2774:	0585                	addi	a1,a1,1
    2776:	fed78fa3          	sb	a3,-1(a5) # e000efff <_eusrstack+0xc0009fff>
    277a:	fee7ebe3          	bltu	a5,a4,2770 <memcpy+0x18>
    277e:	8082                	ret
    2780:	00357693          	andi	a3,a0,3
    2784:	87aa                	mv	a5,a0
    2786:	ca89                	beqz	a3,2798 <memcpy+0x40>
    2788:	2194                	lbu	a3,0(a1)
    278a:	0785                	addi	a5,a5,1
    278c:	0585                	addi	a1,a1,1
    278e:	fed78fa3          	sb	a3,-1(a5)
    2792:	0037f693          	andi	a3,a5,3
    2796:	bfc5                	j	2786 <memcpy+0x2e>
    2798:	ffc77693          	andi	a3,a4,-4
    279c:	fe068613          	addi	a2,a3,-32
    27a0:	06c7f063          	bgeu	a5,a2,2800 <memcpy+0xa8>
    27a4:	0005a383          	lw	t2,0(a1)
    27a8:	0045a283          	lw	t0,4(a1)
    27ac:	0085af83          	lw	t6,8(a1)
    27b0:	00c5af03          	lw	t5,12(a1)
    27b4:	0105ae83          	lw	t4,16(a1)
    27b8:	0145ae03          	lw	t3,20(a1)
    27bc:	0185a303          	lw	t1,24(a1)
    27c0:	01c5a883          	lw	a7,28(a1)
    27c4:	02458593          	addi	a1,a1,36
    27c8:	0077a023          	sw	t2,0(a5)
    27cc:	ffc5a803          	lw	a6,-4(a1)
    27d0:	0057a223          	sw	t0,4(a5)
    27d4:	01f7a423          	sw	t6,8(a5)
    27d8:	01e7a623          	sw	t5,12(a5)
    27dc:	01d7a823          	sw	t4,16(a5)
    27e0:	01c7aa23          	sw	t3,20(a5)
    27e4:	0067ac23          	sw	t1,24(a5)
    27e8:	0117ae23          	sw	a7,28(a5)
    27ec:	02478793          	addi	a5,a5,36
    27f0:	ff07ae23          	sw	a6,-4(a5)
    27f4:	b775                	j	27a0 <memcpy+0x48>
    27f6:	4190                	lw	a2,0(a1)
    27f8:	0791                	addi	a5,a5,4
    27fa:	0591                	addi	a1,a1,4
    27fc:	fec7ae23          	sw	a2,-4(a5)
    2800:	fed7ebe3          	bltu	a5,a3,27f6 <memcpy+0x9e>
    2804:	f6e7e6e3          	bltu	a5,a4,2770 <memcpy+0x18>
    2808:	8082                	ret

0000280a <strlen>:
    280a:	87aa                	mv	a5,a0
    280c:	0785                	addi	a5,a5,1
    280e:	fff7c703          	lbu	a4,-1(a5)
    2812:	ff6d                	bnez	a4,280c <strlen+0x2>
    2814:	40a78533          	sub	a0,a5,a0
    2818:	157d                	addi	a0,a0,-1
    281a:	8082                	ret
    281c:	6548                	flw	fa0,12(a0)
    281e:	6c6c                	flw	fa1,92(s0)
    2820:	6f772c6f          	jal	s8,75716 <_data_lma+0x72e22>
    2824:	6c72                	flw	fs8,28(sp)
    2826:	2164                	lbu	s1,6(a0)
    2828:	000a                	c.slli	zero,0x2
    282a:	0000                	unimp
    282c:	0f4e                	slli	t5,t5,0x13
    282e:	0000                	unimp
    2830:	0d6e                	slli	s10,s10,0x1b
    2832:	0000                	unimp
    2834:	1056                	c.slli	zero,0x35
    2836:	0000                	unimp
    2838:	0e22                	slli	t3,t3,0x8
    283a:	0000                	unimp
    283c:	1056                	c.slli	zero,0x35
    283e:	0000                	unimp
    2840:	0d1c                	addi	a5,sp,656
    2842:	0000                	unimp
    2844:	0bbc                	addi	a5,sp,472
    2846:	0000                	unimp
    2848:	1056                	c.slli	zero,0x35
    284a:	0000                	unimp
    284c:	0d2e                	slli	s10,s10,0xb
    284e:	0000                	unimp
    2850:	0d56                	slli	s10,s10,0x15
    2852:	0000                	unimp
    2854:	0f2e                	slli	t5,t5,0xb
    2856:	0000                	unimp
    2858:	105e                	c.slli	zero,0x37
	...

0000285c <MyDevDescr>:
    285c:	0112 0110 0002 4000 1a86 fe0c 0001 0201     .......@........
    286c:	0100 0000                                   ....

00002870 <MyCfgDescr>:
    2870:	0209 0043 0102 8000 0932 0004 0100 0202     ..C.....2.......
    2880:	0001 2405 1000 0501 0124 0100 2404 0202     ...$....$....$..
    2890:	2405 0006 0701 8105 4003 0100 0409 0001     .$.......@......
    28a0:	0a02 0000 0700 0205 4002 0000 0507 0283     .........@......
    28b0:	0040 0000                                   @...

000028b4 <MyManuInfo>:
    28b4:	030e 0077 0063 0068 002e 0063 006e 0000     ..w.c.h...c.n...

000028c4 <MyProdInfo>:
    28c4:	0316 0055 0053 0042 0020 0053 0065 0072     ..U.S.B. .S.e.r.
    28d4:	0069 0061 006c 0000                         i.a.l...

000028dc <MySerNumInfo>:
    28dc:	0316 0030 0031 0032 0033 0034 0035 0036     ..0.1.2.3.4.5.6.
    28ec:	0037 0038 0039 0000                         7.8.9...
